
W:/GitHub/ECE243-Final-Project/main.axf:     file format elf32-littlearm


Disassembly of section .text:

00000000 <__cs3_interrupt_vector>:
       0:	18 f0 9f e5 18 f0 9f e5 18 f0 9f e5 18 f0 9f e5     ................
      10:	18 f0 9f e5 18 f0 9f e5 18 f0 9f e5 18 f0 9f e5     ................
      20:	40 00 00 00 d4 b3 02 00 d8 b3 02 00 dc b3 02 00     @...............
      30:	e0 b3 02 00 d0 b3 02 00 e4 b3 02 00 e8 b3 02 00     ................

00000040 <__cs3_reset>:
      40:	ea000026 	b	e0 <__cs3_start_asm_sim>

00000044 <__cs3_start_c>:
      44:	e59f608c 	ldr	r6, [pc, #140]	; d8 <__cs3_start_c+0x94>
      48:	e3560000 	cmp	r6, #0
      4c:	e92d4080 	push	{r7, lr}
      50:	e2466001 	sub	r6, r6, #1
      54:	0a00001e 	beq	d4 <__cs3_start_c+0x90>
      58:	e59f507c 	ldr	r5, [pc, #124]	; dc <__cs3_start_c+0x98>
      5c:	e3a00000 	mov	r0, #0
      60:	e3a01000 	mov	r1, #0
      64:	e515200c 	ldr	r2, [r5, #-12]
      68:	e515e010 	ldr	lr, [r5, #-16]
      6c:	e5154008 	ldr	r4, [r5, #-8]
      70:	e15e0002 	cmp	lr, r2
      74:	00822004 	addeq	r2, r2, r4
      78:	0a000009 	beq	a4 <__cs3_start_c+0x60>
      7c:	e3540000 	cmp	r4, #0
      80:	0a000007 	beq	a4 <__cs3_start_c+0x60>
      84:	e1a07002 	mov	r7, r2
      88:	e1a0c002 	mov	r12, r2
      8c:	e8be000c 	ldm	lr!, {r2, r3}
      90:	e8ac000c 	stmia	r12!, {r2, r3}
      94:	e067300c 	rsb	r3, r7, r12
      98:	e1540003 	cmp	r4, r3
      9c:	e1a0200c 	mov	r2, r12
      a0:	1afffff9 	bne	8c <__cs3_start_c+0x48>
      a4:	e515e004 	ldr	lr, [r5, #-4]
      a8:	e35e0000 	cmp	lr, #0
      ac:	11a03002 	movne	r3, r2
      b0:	0a000003 	beq	c4 <__cs3_start_c+0x80>
      b4:	e8a30003 	stmia	r3!, {r0, r1}
      b8:	e062c003 	rsb	r12, r2, r3
      bc:	e15e000c 	cmp	lr, r12
      c0:	1afffffb 	bne	b4 <__cs3_start_c+0x70>
      c4:	e2466001 	sub	r6, r6, #1
      c8:	e3760001 	cmn	r6, #1
      cc:	e2855014 	add	r5, r5, #20
      d0:	1affffe3 	bne	64 <__cs3_start_c+0x20>
      d4:	eb00aca4 	bl	2b36c <__cs3_premain>
      d8:	00000001 	.word	0x00000001
      dc:	0002b740 	.word	0x0002b740

000000e0 <__cs3_start_asm_sim>:
      e0:	e28f103c 	add	r1, pc, #60	; 0x3c
      e4:	e3a00016 	mov	r0, #22
      e8:	ef123456 	svc	0x00123456
      ec:	e3500000 	cmp	r0, #0
      f0:	ba000008 	blt	118 <__cs3_start_asm_sim+0x38>
      f4:	e59f2028 	ldr	r2, [pc, #40]	; 124 <__cs3_heap_start_ptr>
      f8:	e59fd01c 	ldr	sp, [pc, #28]	; 11c <__cs3_start_asm_sim+0x3c>
      fc:	e5920008 	ldr	r0, [r2, #8]
     100:	e3500000 	cmp	r0, #0
     104:	11a0d000 	movne	sp, r0
     108:	e59f1010 	ldr	r1, [pc, #16]	; 120 <__cs3_start_asm_sim+0x40>
     10c:	e5920004 	ldr	r0, [r2, #4]
     110:	e3500000 	cmp	r0, #0
     114:	15810000 	strne	r0, [r1]
     118:	eaffffc9 	b	44 <__cs3_start_c>
     11c:	3ffffff8 	.word	0x3ffffff8
     120:	0002bc28 	.word	0x0002bc28

00000124 <__cs3_heap_start_ptr>:
     124:	0002bc58 	.word	0x0002bc58

00000128 <_start>:
     128:	e51fd000 	ldr	sp, [pc, #-0]	; 130 <_start+0x8>
     12c:	eaffffc4 	b	44 <__cs3_start_c>
     130:	3ffffff8 	.word	0x3ffffff8

00000134 <deregister_tm_clones>:
     134:	e92d4008 	push	{r3, lr}
     138:	e59f002c 	ldr	r0, [pc, #44]	; 16c <deregister_tm_clones+0x38>
     13c:	e59f302c 	ldr	r3, [pc, #44]	; 170 <deregister_tm_clones+0x3c>
     140:	e0603003 	rsb	r3, r0, r3
     144:	e3530006 	cmp	r3, #6
     148:	8a000001 	bhi	154 <deregister_tm_clones+0x20>
     14c:	e8bd4008 	pop	{r3, lr}
     150:	e12fff1e 	bx	lr
     154:	e59f3018 	ldr	r3, [pc, #24]	; 174 <deregister_tm_clones+0x40>
     158:	e3530000 	cmp	r3, #0
     15c:	0afffffa 	beq	14c <deregister_tm_clones+0x18>
     160:	e1a0e00f 	mov	lr, pc
     164:	e12fff13 	bx	r3
     168:	eafffff7 	b	14c <deregister_tm_clones+0x18>
     16c:	0002bc30 	.word	0x0002bc30
     170:	0002bc33 	.word	0x0002bc33
     174:	00000000 	.word	0x00000000

00000178 <register_tm_clones>:
     178:	e92d4008 	push	{r3, lr}
     17c:	e59f0034 	ldr	r0, [pc, #52]	; 1b8 <register_tm_clones+0x40>
     180:	e59f3034 	ldr	r3, [pc, #52]	; 1bc <register_tm_clones+0x44>
     184:	e0603003 	rsb	r3, r0, r3
     188:	e1a03143 	asr	r3, r3, #2
     18c:	e0833fa3 	add	r3, r3, r3, lsr #31
     190:	e1b010c3 	asrs	r1, r3, #1
     194:	1a000001 	bne	1a0 <register_tm_clones+0x28>
     198:	e8bd4008 	pop	{r3, lr}
     19c:	e12fff1e 	bx	lr
     1a0:	e59f2018 	ldr	r2, [pc, #24]	; 1c0 <register_tm_clones+0x48>
     1a4:	e3520000 	cmp	r2, #0
     1a8:	0afffffa 	beq	198 <register_tm_clones+0x20>
     1ac:	e1a0e00f 	mov	lr, pc
     1b0:	e12fff12 	bx	r2
     1b4:	eafffff7 	b	198 <register_tm_clones+0x20>
     1b8:	0002bc30 	.word	0x0002bc30
     1bc:	0002bc30 	.word	0x0002bc30
     1c0:	00000000 	.word	0x00000000

000001c4 <__do_global_dtors_aux>:
     1c4:	e92d4010 	push	{r4, lr}
     1c8:	e59f402c 	ldr	r4, [pc, #44]	; 1fc <__do_global_dtors_aux+0x38>
     1cc:	e5d43000 	ldrb	r3, [r4]
     1d0:	e3530000 	cmp	r3, #0
     1d4:	1a000006 	bne	1f4 <__do_global_dtors_aux+0x30>
     1d8:	ebffffd5 	bl	134 <deregister_tm_clones>
     1dc:	e59f301c 	ldr	r3, [pc, #28]	; 200 <__do_global_dtors_aux+0x3c>
     1e0:	e3530000 	cmp	r3, #0
     1e4:	159f0018 	ldrne	r0, [pc, #24]	; 204 <__do_global_dtors_aux+0x40>
     1e8:	1320f000 	nopne	{0}
     1ec:	e3a03001 	mov	r3, #1
     1f0:	e5c43000 	strb	r3, [r4]
     1f4:	e8bd4010 	pop	{r4, lr}
     1f8:	e12fff1e 	bx	lr
     1fc:	0002bc30 	.word	0x0002bc30
     200:	00000000 	.word	0x00000000
     204:	0002b474 	.word	0x0002b474

00000208 <frame_dummy>:
     208:	e92d4008 	push	{r3, lr}
     20c:	e59f3034 	ldr	r3, [pc, #52]	; 248 <frame_dummy+0x40>
     210:	e3530000 	cmp	r3, #0
     214:	159f0030 	ldrne	r0, [pc, #48]	; 24c <frame_dummy+0x44>
     218:	159f1030 	ldrne	r1, [pc, #48]	; 250 <frame_dummy+0x48>
     21c:	1320f000 	nopne	{0}
     220:	e59f002c 	ldr	r0, [pc, #44]	; 254 <frame_dummy+0x4c>
     224:	e5903000 	ldr	r3, [r0]
     228:	e3530000 	cmp	r3, #0
     22c:	0a000003 	beq	240 <frame_dummy+0x38>
     230:	e59f3020 	ldr	r3, [pc, #32]	; 258 <frame_dummy+0x50>
     234:	e3530000 	cmp	r3, #0
     238:	11a0e00f 	movne	lr, pc
     23c:	112fff13 	bxne	r3
     240:	e8bd4008 	pop	{r3, lr}
     244:	eaffffcb 	b	178 <register_tm_clones>
     248:	00000000 	.word	0x00000000
     24c:	0002b474 	.word	0x0002b474
     250:	0002bc34 	.word	0x0002bc34
     254:	0002b740 	.word	0x0002b740
     258:	00000000 	.word	0x00000000

0000025c <swap>:
    {0x24, 'e'}
};


void swap(int* a, int* b) {
    int temp = *a;
     25c:	e5903000 	ldr	r3, [r0]
    *a = *b;
     260:	e5912000 	ldr	r2, [r1]
     264:	e5802000 	str	r2, [r0]
    *b = temp;
     268:	e5813000 	str	r3, [r1]
     26c:	e12fff1e 	bx	lr

00000270 <plot_pixel>:
}


void plot_pixel(int x, int y, short int line_color)
{
    *(short int *)(pixel_buffer_start + (y << 10) + (x << 1)) = line_color;
     270:	e30b3c4c 	movw	r3, #48204	; 0xbc4c
     274:	e3403002 	movt	r3, #2
     278:	e5933000 	ldr	r3, [r3]
     27c:	e1a00080 	lsl	r0, r0, #1
     280:	e0831501 	add	r1, r3, r1, lsl #10
     284:	e18120b0 	strh	r2, [r1, r0]
     288:	e12fff1e 	bx	lr

0000028c <draw_line>:
}

// code not shown for clear_screen() and draw_line() subroutines
void draw_line(int x0, int y0, int x1, int y1, short int line_color) {
     28c:	e92d4ff0 	push	{r4, r5, r6, r7, r8, r9, r10, r11, lr}
     290:	e24dd014 	sub	sp, sp, #20
     294:	e58d000c 	str	r0, [sp, #12]
     298:	e58d1008 	str	r1, [sp, #8]
     29c:	e58d2004 	str	r2, [sp, #4]
     2a0:	e58d3000 	str	r3, [sp]
     2a4:	e1dda3f8 	ldrsh	r10, [sp, #56]	; 0x38

    bool is_steep = abs(y1 - y0) > abs(x1 - x0);
     2a8:	e0613003 	rsb	r3, r1, r3
     2ac:	e3530000 	cmp	r3, #0
     2b0:	b2633000 	rsblt	r3, r3, #0
     2b4:	e0602002 	rsb	r2, r0, r2
     2b8:	e0228fc2 	eor	r8, r2, r2, asr #31
     2bc:	e0488fc2 	sub	r8, r8, r2, asr #31
     2c0:	e1530008 	cmp	r3, r8
     2c4:	d3a08000 	movle	r8, #0
     2c8:	c3a08001 	movgt	r8, #1

    if(is_steep) {
     2cc:	e3580000 	cmp	r8, #0
     2d0:	0a000005 	beq	2ec <draw_line+0x60>
        swap(&x0, &y0);
     2d4:	e28d000c 	add	r0, sp, #12
     2d8:	e28d1008 	add	r1, sp, #8
     2dc:	ebffffde 	bl	25c <swap>
        swap(&x1, &y1);
     2e0:	e28d0004 	add	r0, sp, #4
     2e4:	e1a0100d 	mov	r1, sp
     2e8:	ebffffdb 	bl	25c <swap>
    }

    if(x0 > x1) {
     2ec:	e59d3004 	ldr	r3, [sp, #4]
     2f0:	e59d200c 	ldr	r2, [sp, #12]
     2f4:	e1520003 	cmp	r2, r3
     2f8:	da000005 	ble	314 <draw_line+0x88>
        swap(&x0, &x1);
     2fc:	e28d000c 	add	r0, sp, #12
     300:	e28d1004 	add	r1, sp, #4
     304:	ebffffd4 	bl	25c <swap>
        swap(&y0, &y1);
     308:	e28d0008 	add	r0, sp, #8
     30c:	e1a0100d 	mov	r1, sp
     310:	ebffffd1 	bl	25c <swap>
    }

    int deltax = x1 - x0;
     314:	e59d3004 	ldr	r3, [sp, #4]
     318:	e59d500c 	ldr	r5, [sp, #12]
     31c:	e0659003 	rsb	r9, r5, r3
    int deltay = abs(y1 - y0);
     320:	e59d2000 	ldr	r2, [sp]
     324:	e59d6008 	ldr	r6, [sp, #8]
     328:	e0667002 	rsb	r7, r6, r2
     32c:	e3570000 	cmp	r7, #0
     330:	b2677000 	rsblt	r7, r7, #0
    int error = -(deltax/2);
     334:	e0894fa9 	add	r4, r9, r9, lsr #31
     338:	e1a040c4 	asr	r4, r4, #1
     33c:	e2644000 	rsb	r4, r4, #0
    int y = y0;

    int y_step;
    if (y0 < y1) {
        y_step = 1;
     340:	e1520006 	cmp	r2, r6
     344:	d3e0b000 	mvnle	r11, #0
     348:	c3a0b001 	movgt	r11, #1
    } else {
        y_step = -1;
    }

    int x;
    for (x = x0; x < x1; x++) {
     34c:	e1530005 	cmp	r3, r5
     350:	da00000d 	ble	38c <draw_line+0x100>
        if(is_steep) {
     354:	e3580000 	cmp	r8, #0
            plot_pixel(y,x, line_color);
     358:	11a00006 	movne	r0, r6
     35c:	11a01005 	movne	r1, r5
        } else {
            plot_pixel(x,y, line_color);
     360:	01a00005 	moveq	r0, r5
     364:	01a01006 	moveq	r1, r6
     368:	e1a0200a 	mov	r2, r10
     36c:	ebffffbf 	bl	270 <plot_pixel>
        }
        error = error + deltay;

        if(error >= 0) {
     370:	e0944007 	adds	r4, r4, r7
            y = y + y_step;
     374:	5086600b 	addpl	r6, r6, r11
            error = error - deltax;
     378:	50694004 	rsbpl	r4, r9, r4
    } else {
        y_step = -1;
    }

    int x;
    for (x = x0; x < x1; x++) {
     37c:	e2855001 	add	r5, r5, #1
     380:	e59d3004 	ldr	r3, [sp, #4]
     384:	e1530005 	cmp	r3, r5
     388:	cafffff1 	bgt	354 <draw_line+0xc8>
            y = y + y_step;
            error = error - deltax;
        }

    }
}
     38c:	e28dd014 	add	sp, sp, #20
     390:	e8bd8ff0 	pop	{r4, r5, r6, r7, r8, r9, r10, r11, pc}

00000394 <clear_screen>:

void clear_screen() {
     394:	e92d40f8 	push	{r3, r4, r5, r6, r7, lr}
    int x;
    for(x = 0; x < 320; x++) {
     398:	e3a05000 	mov	r5, #0
        }

    }
}

void clear_screen() {
     39c:	e1a07005 	mov	r7, r5
    int x;
    for(x = 0; x < 320; x++) {
        int y;
        for(y = 0; y < 240; y++) {
            plot_pixel(x, y, 0xffff);
     3a0:	e3e06000 	mvn	r6, #0
     3a4:	ea000009 	b	3d0 <clear_screen+0x3c>
     3a8:	e1a00005 	mov	r0, r5
     3ac:	e1a01004 	mov	r1, r4
     3b0:	e1a02006 	mov	r2, r6
     3b4:	ebffffad 	bl	270 <plot_pixel>

void clear_screen() {
    int x;
    for(x = 0; x < 320; x++) {
        int y;
        for(y = 0; y < 240; y++) {
     3b8:	e2844001 	add	r4, r4, #1
     3bc:	e35400f0 	cmp	r4, #240	; 0xf0
     3c0:	1afffff8 	bne	3a8 <clear_screen+0x14>
    }
}

void clear_screen() {
    int x;
    for(x = 0; x < 320; x++) {
     3c4:	e2855001 	add	r5, r5, #1
     3c8:	e3550d05 	cmp	r5, #320	; 0x140
     3cc:	08bd80f8 	popeq	{r3, r4, r5, r6, r7, pc}
        }

    }
}

void clear_screen() {
     3d0:	e1a04007 	mov	r4, r7
     3d4:	eafffff3 	b	3a8 <clear_screen+0x14>

000003d8 <background>:
            plot_pixel(x, y, 0xffff);
        }
    }
}

void background(){
     3d8:	e92d40f0 	push	{r4, r5, r6, r7, lr}
     3dc:	e24dd00c 	sub	sp, sp, #12
    clear_screen();
     3e0:	ebffffeb 	bl	394 <clear_screen>
    draw_line(0, 120, 319, 120, 0x0000);   // this line is blue
     3e4:	e3a04000 	mov	r4, #0
     3e8:	e58d4000 	str	r4, [sp]
     3ec:	e1a00004 	mov	r0, r4
     3f0:	e3a01078 	mov	r1, #120	; 0x78
     3f4:	e300213f 	movw	r2, #319	; 0x13f
     3f8:	e1a03001 	mov	r3, r1
     3fc:	ebffffa2 	bl	28c <draw_line>
    draw_line(160, 0, 160, 239, 0x0000); // this line is green
     400:	e58d4000 	str	r4, [sp]
     404:	e3a000a0 	mov	r0, #160	; 0xa0
     408:	e1a01004 	mov	r1, r4
     40c:	e1a02000 	mov	r2, r0
     410:	e3a030ef 	mov	r3, #239	; 0xef
     414:	ebffff9c 	bl	28c <draw_line>
    int x,y;
    for(x=0;x<320;x=x+16){
        draw_line(x,0,x,239,0x3432);
     418:	e3037432 	movw	r7, #13362	; 0x3432
     41c:	e1a06004 	mov	r6, r4
     420:	e3a050ef 	mov	r5, #239	; 0xef
     424:	e58d7000 	str	r7, [sp]
     428:	e1a00004 	mov	r0, r4
     42c:	e1a01006 	mov	r1, r6
     430:	e1a02004 	mov	r2, r4
     434:	e1a03005 	mov	r3, r5
     438:	ebffff93 	bl	28c <draw_line>
void background(){
    clear_screen();
    draw_line(0, 120, 319, 120, 0x0000);   // this line is blue
    draw_line(160, 0, 160, 239, 0x0000); // this line is green
    int x,y;
    for(x=0;x<320;x=x+16){
     43c:	e2844010 	add	r4, r4, #16
     440:	e3540d05 	cmp	r4, #320	; 0x140
     444:	1afffff6 	bne	424 <background+0x4c>
     448:	e3a04000 	mov	r4, #0
        draw_line(x,0,x,239,0x3432);
    }
    for(y=0;y<240;y=y+12){
        draw_line(0,y,319,y,0x1111);
     44c:	e3017111 	movw	r7, #4369	; 0x1111
     450:	e1a06004 	mov	r6, r4
     454:	e300513f 	movw	r5, #319	; 0x13f
     458:	e58d7000 	str	r7, [sp]
     45c:	e1a00006 	mov	r0, r6
     460:	e1a01004 	mov	r1, r4
     464:	e1a02005 	mov	r2, r5
     468:	e1a03004 	mov	r3, r4
     46c:	ebffff86 	bl	28c <draw_line>
    draw_line(160, 0, 160, 239, 0x0000); // this line is green
    int x,y;
    for(x=0;x<320;x=x+16){
        draw_line(x,0,x,239,0x3432);
    }
    for(y=0;y<240;y=y+12){
     470:	e284400c 	add	r4, r4, #12
     474:	e35400f0 	cmp	r4, #240	; 0xf0
     478:	1afffff6 	bne	458 <background+0x80>
        draw_line(0,y,319,y,0x1111);
    }
    draw_line(0,239,319,239,0x0000);
     47c:	e3a04000 	mov	r4, #0
     480:	e58d4000 	str	r4, [sp]
     484:	e1a00004 	mov	r0, r4
     488:	e3a010ef 	mov	r1, #239	; 0xef
     48c:	e300213f 	movw	r2, #319	; 0x13f
     490:	e1a03001 	mov	r3, r1
     494:	ebffff7c 	bl	28c <draw_line>
    draw_line(319,0,319,239,0x3432);
     498:	e3033432 	movw	r3, #13362	; 0x3432
     49c:	e58d3000 	str	r3, [sp]
     4a0:	e300013f 	movw	r0, #319	; 0x13f
     4a4:	e1a01004 	mov	r1, r4
     4a8:	e1a02000 	mov	r2, r0
     4ac:	e3a030ef 	mov	r3, #239	; 0xef
     4b0:	ebffff75 	bl	28c <draw_line>
    draw_line(0, 120, 319, 120, 0x0000);   // this line is blue
     4b4:	e58d4000 	str	r4, [sp]
     4b8:	e1a00004 	mov	r0, r4
     4bc:	e3a01078 	mov	r1, #120	; 0x78
     4c0:	e300213f 	movw	r2, #319	; 0x13f
     4c4:	e1a03001 	mov	r3, r1
     4c8:	ebffff6f 	bl	28c <draw_line>
    draw_line(160, 0, 160, 239, 0x0000); // this line is green
     4cc:	e58d4000 	str	r4, [sp]
     4d0:	e3a000a0 	mov	r0, #160	; 0xa0
     4d4:	e1a01004 	mov	r1, r4
     4d8:	e1a02000 	mov	r2, r0
     4dc:	e3a030ef 	mov	r3, #239	; 0xef
     4e0:	ebffff69 	bl	28c <draw_line>
}
     4e4:	e28dd00c 	add	sp, sp, #12
     4e8:	e8bd80f0 	pop	{r4, r5, r6, r7, pc}

000004ec <plotsin>:

void plotsin(int *xValues, int *yValues, bool cosPlot) {
     4ec:	e92d4ff8 	push	{r3, r4, r5, r6, r7, r8, r9, r10, r11, lr}
     4f0:	e1a09000 	mov	r9, r0
     4f4:	e1a0a001 	mov	r10, r1
     4f8:	e1a0b002 	mov	r11, r2
     4fc:	e3a07000 	mov	r7, #0
    int x;
    for(x = 0; x < 320; x++) {
     500:	e1a06007 	mov	r6, r7
        xValues[x] = x;
        if(cosPlot) {
            if(add) yValues[x] += round(12*cos(xin));
            else if(subtract) yValues[x] -= round(12*cos(xin));
        } else {
            if(add) yValues[x] += round(12*sin(xin));
     504:	e30b8c4c 	movw	r8, #48204	; 0xbc4c
     508:	e3408002 	movt	r8, #2
}

void plotsin(int *xValues, int *yValues, bool cosPlot) {
    int x;
    for(x = 0; x < 320; x++) {
        double xin = (x-160.0)/16.0;
     50c:	e1a00006 	mov	r0, r6
     510:	eb00a864 	bl	2a6a8 <__aeabi_i2d>
     514:	e3a02000 	mov	r2, #0
     518:	e3a03000 	mov	r3, #0
     51c:	e3443064 	movt	r3, #16484	; 0x4064
     520:	eb00a792 	bl	2a370 <__aeabi_dsub>
     524:	e3a02000 	mov	r2, #0
     528:	e3a03000 	mov	r3, #0
     52c:	e3433fb0 	movt	r3, #16304	; 0x3fb0
     530:	eb00a893 	bl	2a784 <__aeabi_dmul>
        xValues[x] = x;
     534:	e7896007 	str	r6, [r9, r7]
        if(cosPlot) {
     538:	e35b0000 	cmp	r11, #0
     53c:	0a000025 	beq	5d8 <plotsin+0xec>
            if(add) yValues[x] += round(12*cos(xin));
     540:	e5d83004 	ldrb	r3, [r8, #4]
     544:	e3530000 	cmp	r3, #0
     548:	0a00000f 	beq	58c <plotsin+0xa0>
     54c:	eb009850 	bl	26694 <cos>
     550:	e3a02000 	mov	r2, #0
     554:	e3a03000 	mov	r3, #0
     558:	e3443028 	movt	r3, #16424	; 0x4028
     55c:	eb00a888 	bl	2a784 <__aeabi_dmul>
     560:	eb009888 	bl	26788 <round>
     564:	e1a04000 	mov	r4, r0
     568:	e1a05001 	mov	r5, r1
     56c:	e79a0007 	ldr	r0, [r10, r7]
     570:	eb00a84c 	bl	2a6a8 <__aeabi_i2d>
     574:	e1a02004 	mov	r2, r4
     578:	e1a03005 	mov	r3, r5
     57c:	eb00a77c 	bl	2a374 <__adddf3>
     580:	eb00a9f7 	bl	2ad64 <__aeabi_d2iz>
     584:	e78a0007 	str	r0, [r10, r7]
     588:	ea000037 	b	66c <plotsin+0x180>
            else if(subtract) yValues[x] -= round(12*cos(xin));
     58c:	e5d83005 	ldrb	r3, [r8, #5]
     590:	e3530000 	cmp	r3, #0
     594:	0a000034 	beq	66c <plotsin+0x180>
     598:	eb00983d 	bl	26694 <cos>
     59c:	e3a02000 	mov	r2, #0
     5a0:	e3a03000 	mov	r3, #0
     5a4:	e3443028 	movt	r3, #16424	; 0x4028
     5a8:	eb00a875 	bl	2a784 <__aeabi_dmul>
     5ac:	eb009875 	bl	26788 <round>
     5b0:	e1a04000 	mov	r4, r0
     5b4:	e1a05001 	mov	r5, r1
     5b8:	e79a0007 	ldr	r0, [r10, r7]
     5bc:	eb00a839 	bl	2a6a8 <__aeabi_i2d>
     5c0:	e1a02004 	mov	r2, r4
     5c4:	e1a03005 	mov	r3, r5
     5c8:	eb00a768 	bl	2a370 <__aeabi_dsub>
     5cc:	eb00a9e4 	bl	2ad64 <__aeabi_d2iz>
     5d0:	e78a0007 	str	r0, [r10, r7]
     5d4:	ea000024 	b	66c <plotsin+0x180>
        } else {
            if(add) yValues[x] += round(12*sin(xin));
     5d8:	e5d83004 	ldrb	r3, [r8, #4]
     5dc:	e3530000 	cmp	r3, #0
     5e0:	0a00000f 	beq	624 <plotsin+0x138>
     5e4:	eb0098a3 	bl	26878 <sin>
     5e8:	e3a02000 	mov	r2, #0
     5ec:	e3a03000 	mov	r3, #0
     5f0:	e3443028 	movt	r3, #16424	; 0x4028
     5f4:	eb00a862 	bl	2a784 <__aeabi_dmul>
     5f8:	eb009862 	bl	26788 <round>
     5fc:	e1a04000 	mov	r4, r0
     600:	e1a05001 	mov	r5, r1
     604:	e79a0007 	ldr	r0, [r10, r7]
     608:	eb00a826 	bl	2a6a8 <__aeabi_i2d>
     60c:	e1a02004 	mov	r2, r4
     610:	e1a03005 	mov	r3, r5
     614:	eb00a756 	bl	2a374 <__adddf3>
     618:	eb00a9d1 	bl	2ad64 <__aeabi_d2iz>
     61c:	e78a0007 	str	r0, [r10, r7]
     620:	ea000011 	b	66c <plotsin+0x180>
            else if(subtract) yValues[x] -= round(12*sin(xin));
     624:	e5d83005 	ldrb	r3, [r8, #5]
     628:	e3530000 	cmp	r3, #0
     62c:	0a00000e 	beq	66c <plotsin+0x180>
     630:	eb009890 	bl	26878 <sin>
     634:	e3a02000 	mov	r2, #0
     638:	e3a03000 	mov	r3, #0
     63c:	e3443028 	movt	r3, #16424	; 0x4028
     640:	eb00a84f 	bl	2a784 <__aeabi_dmul>
     644:	eb00984f 	bl	26788 <round>
     648:	e1a04000 	mov	r4, r0
     64c:	e1a05001 	mov	r5, r1
     650:	e79a0007 	ldr	r0, [r10, r7]
     654:	eb00a813 	bl	2a6a8 <__aeabi_i2d>
     658:	e1a02004 	mov	r2, r4
     65c:	e1a03005 	mov	r3, r5
     660:	eb00a742 	bl	2a370 <__aeabi_dsub>
     664:	eb00a9be 	bl	2ad64 <__aeabi_d2iz>
     668:	e78a0007 	str	r0, [r10, r7]
    draw_line(160, 0, 160, 239, 0x0000); // this line is green
}

void plotsin(int *xValues, int *yValues, bool cosPlot) {
    int x;
    for(x = 0; x < 320; x++) {
     66c:	e2866001 	add	r6, r6, #1
     670:	e2877004 	add	r7, r7, #4
     674:	e3560d05 	cmp	r6, #320	; 0x140
     678:	1affffa3 	bne	50c <plotsin+0x20>
            if(add) yValues[x] += round(12*sin(xin));
            else if(subtract) yValues[x] -= round(12*sin(xin));
        }
        
    }
}
     67c:	e8bd8ff8 	pop	{r3, r4, r5, r6, r7, r8, r9, r10, r11, pc}

00000680 <plote>:

void plote(int *xValues, int *yValues){
     680:	e92d4ff0 	push	{r4, r5, r6, r7, r8, r9, r10, r11, lr}
     684:	e24dd014 	sub	sp, sp, #20
     688:	e1a0b000 	mov	r11, r0
     68c:	e58d1004 	str	r1, [sp, #4]
     690:	e3a0a000 	mov	r10, #0
    int x;
    for(x = 0; x < 320; x++) {
     694:	e1a0800a 	mov	r8, r10
        double xin = (x-160.0)/16.0;
     698:	e3a06000 	mov	r6, #0
     69c:	e3a07000 	mov	r7, #0
     6a0:	e3437fb0 	movt	r7, #16304	; 0x3fb0
        xValues[x] = x;
        if(add) yValues[x] += 12*exp(xin);
     6a4:	e30b9c4c 	movw	r9, #48204	; 0xbc4c
     6a8:	e3409002 	movt	r9, #2
}

void plote(int *xValues, int *yValues){
    int x;
    for(x = 0; x < 320; x++) {
        double xin = (x-160.0)/16.0;
     6ac:	e1a00008 	mov	r0, r8
     6b0:	eb00a7fc 	bl	2a6a8 <__aeabi_i2d>
     6b4:	e3a02000 	mov	r2, #0
     6b8:	e3a03000 	mov	r3, #0
     6bc:	e3443064 	movt	r3, #16484	; 0x4064
     6c0:	eb00a72a 	bl	2a370 <__aeabi_dsub>
     6c4:	e1a02006 	mov	r2, r6
     6c8:	e1a03007 	mov	r3, r7
     6cc:	eb00a82c 	bl	2a784 <__aeabi_dmul>
     6d0:	e1a04000 	mov	r4, r0
     6d4:	e1a05001 	mov	r5, r1
        xValues[x] = x;
     6d8:	e78b800a 	str	r8, [r11, r10]
        if(add) yValues[x] += 12*exp(xin);
     6dc:	e5d93004 	ldrb	r3, [r9, #4]
     6e0:	e3530000 	cmp	r3, #0
     6e4:	0a000012 	beq	734 <plote+0xb4>
     6e8:	e59d3004 	ldr	r3, [sp, #4]
     6ec:	e793000a 	ldr	r0, [r3, r10]
     6f0:	eb00a7ec 	bl	2a6a8 <__aeabi_i2d>
     6f4:	e1cd00f8 	strd	r0, [sp, #8]
     6f8:	e1a00004 	mov	r0, r4
     6fc:	e1a01005 	mov	r1, r5
     700:	eb00989c 	bl	26978 <exp>
     704:	e3a02000 	mov	r2, #0
     708:	e3a03000 	mov	r3, #0
     70c:	e3443028 	movt	r3, #16424	; 0x4028
     710:	eb00a81b 	bl	2a784 <__aeabi_dmul>
     714:	e1a02000 	mov	r2, r0
     718:	e1a03001 	mov	r3, r1
     71c:	e1cd00d8 	ldrd	r0, [sp, #8]
     720:	eb00a713 	bl	2a374 <__adddf3>
     724:	eb00a98e 	bl	2ad64 <__aeabi_d2iz>
     728:	e59d3004 	ldr	r3, [sp, #4]
     72c:	e783000a 	str	r0, [r3, r10]
     730:	ea000014 	b	788 <plote+0x108>
        else if(subtract) yValues[x] -= 12*exp(xin);
     734:	e5d93005 	ldrb	r3, [r9, #5]
     738:	e3530000 	cmp	r3, #0
     73c:	0a000011 	beq	788 <plote+0x108>
     740:	e59d3004 	ldr	r3, [sp, #4]
     744:	e793000a 	ldr	r0, [r3, r10]
     748:	eb00a7d6 	bl	2a6a8 <__aeabi_i2d>
     74c:	e1cd00f8 	strd	r0, [sp, #8]
     750:	e1a00004 	mov	r0, r4
     754:	e1a01005 	mov	r1, r5
     758:	eb009886 	bl	26978 <exp>
     75c:	e3a02000 	mov	r2, #0
     760:	e3a03000 	mov	r3, #0
     764:	e3443028 	movt	r3, #16424	; 0x4028
     768:	eb00a805 	bl	2a784 <__aeabi_dmul>
     76c:	e1a02000 	mov	r2, r0
     770:	e1a03001 	mov	r3, r1
     774:	e1cd00d8 	ldrd	r0, [sp, #8]
     778:	eb00a6fc 	bl	2a370 <__aeabi_dsub>
     77c:	eb00a978 	bl	2ad64 <__aeabi_d2iz>
     780:	e59d3004 	ldr	r3, [sp, #4]
     784:	e783000a 	str	r0, [r3, r10]
    }
}

void plote(int *xValues, int *yValues){
    int x;
    for(x = 0; x < 320; x++) {
     788:	e2888001 	add	r8, r8, #1
     78c:	e28aa004 	add	r10, r10, #4
     790:	e3580d05 	cmp	r8, #320	; 0x140
     794:	1affffc4 	bne	6ac <plote+0x2c>
        double xin = (x-160.0)/16.0;
        xValues[x] = x;
        if(add) yValues[x] += 12*exp(xin);
        else if(subtract) yValues[x] -= 12*exp(xin);
    }
}
     798:	e28dd014 	add	sp, sp, #20
     79c:	e8bd8ff0 	pop	{r4, r5, r6, r7, r8, r9, r10, r11, pc}

000007a0 <plotx>:

void plotx(int power, int shiftx, int shifty, int *prevX, int *prevY){
     7a0:	e92d4ff0 	push	{r4, r5, r6, r7, r8, r9, r10, r11, lr}
     7a4:	e24dd00c 	sub	sp, sp, #12
     7a8:	e1a0b000 	mov	r11, r0
     7ac:	e1a09003 	mov	r9, r3
     7b0:	e59da030 	ldr	r10, [sp, #48]	; 0x30
    for(x=0; x<320; x++) {
        double xin = (x-160.0)/16.0;
        
        int y = 12*pow(xin, power);
        
         int plotx = (x)+shiftx*16;
     7b4:	e1a01201 	lsl	r1, r1, #4
     7b8:	e58d1004 	str	r1, [sp, #4]
     7bc:	e3a07000 	mov	r7, #0
    int x,y=0;
    int count = 120;
    
    int counter = 0;
    
    for(x=0; x<320; x++) {
     7c0:	e1a06007 	mov	r6, r7
        int y = 12*pow(xin, power);
        
         int plotx = (x)+shiftx*16;
        
            prevX[x] = round(plotx);
            if(add) prevY[x] += y;
     7c4:	e30b8c4c 	movw	r8, #48204	; 0xbc4c
     7c8:	e3408002 	movt	r8, #2
    int count = 120;
    
    int counter = 0;
    
    for(x=0; x<320; x++) {
        double xin = (x-160.0)/16.0;
     7cc:	e1a00006 	mov	r0, r6
     7d0:	eb00a7b4 	bl	2a6a8 <__aeabi_i2d>
     7d4:	e3a02000 	mov	r2, #0
     7d8:	e3a03000 	mov	r3, #0
     7dc:	e3443064 	movt	r3, #16484	; 0x4064
     7e0:	eb00a6e2 	bl	2a370 <__aeabi_dsub>
     7e4:	e3a02000 	mov	r2, #0
     7e8:	e3a03000 	mov	r3, #0
     7ec:	e3433fb0 	movt	r3, #16304	; 0x3fb0
     7f0:	eb00a7e3 	bl	2a784 <__aeabi_dmul>
     7f4:	e1a04000 	mov	r4, r0
     7f8:	e1a05001 	mov	r5, r1
        
        int y = 12*pow(xin, power);
     7fc:	e1a0000b 	mov	r0, r11
     800:	eb00a7a8 	bl	2a6a8 <__aeabi_i2d>
     804:	e1a02000 	mov	r2, r0
     808:	e1a03001 	mov	r3, r1
     80c:	e1a00004 	mov	r0, r4
     810:	e1a01005 	mov	r1, r5
     814:	eb0098bb 	bl	26b08 <pow>
     818:	e3a02000 	mov	r2, #0
     81c:	e3a03000 	mov	r3, #0
     820:	e3443028 	movt	r3, #16424	; 0x4028
     824:	eb00a7d6 	bl	2a784 <__aeabi_dmul>
     828:	eb00a94d 	bl	2ad64 <__aeabi_d2iz>
     82c:	e1a04000 	mov	r4, r0
        
         int plotx = (x)+shiftx*16;
        
            prevX[x] = round(plotx);
     830:	e59d3004 	ldr	r3, [sp, #4]
     834:	e0860003 	add	r0, r6, r3
     838:	eb00a79a 	bl	2a6a8 <__aeabi_i2d>
     83c:	eb0097d1 	bl	26788 <round>
     840:	eb00a947 	bl	2ad64 <__aeabi_d2iz>
     844:	e7890007 	str	r0, [r9, r7]
            if(add) prevY[x] += y;
     848:	e5d83004 	ldrb	r3, [r8, #4]
     84c:	e3530000 	cmp	r3, #0
     850:	179a3007 	ldrne	r3, [r10, r7]
     854:	10834004 	addne	r4, r3, r4
     858:	178a4007 	strne	r4, [r10, r7]
     85c:	1a000004 	bne	874 <plotx+0xd4>
            else if(subtract) prevY[x] -= y;
     860:	e5d83005 	ldrb	r3, [r8, #5]
     864:	e3530000 	cmp	r3, #0
     868:	179a3007 	ldrne	r3, [r10, r7]
     86c:	10644003 	rsbne	r4, r4, r3
     870:	178a4007 	strne	r4, [r10, r7]
    int x,y=0;
    int count = 120;
    
    int counter = 0;
    
    for(x=0; x<320; x++) {
     874:	e2866001 	add	r6, r6, #1
     878:	e2877004 	add	r7, r7, #4
     87c:	e3560d05 	cmp	r6, #320	; 0x140
     880:	1affffd1 	bne	7cc <plotx+0x2c>
            prevX[x] = round(plotx);
            if(add) prevY[x] += y;
            else if(subtract) prevY[x] -= y;
        
    }
}
     884:	e28dd00c 	add	sp, sp, #12
     888:	e8bd8ff0 	pop	{r4, r5, r6, r7, r8, r9, r10, r11, pc}

0000088c <plotconstant>:

void plotconstant(int* xValues, int* yValues, int constant) {
     88c:	e92d0070 	push	{r4, r5, r6}
    int x;
    for(x = 0; x < 320; x++) {
        xValues[x] = x;
        if(add) yValues[x] -= -12*constant;
     890:	e0825082 	add	r5, r2, r2, lsl #1
     894:	e1a05105 	lsl	r5, r5, #2
        else if(subtract) yValues[x] += -12*constant;
     898:	e0422102 	sub	r2, r2, r2, lsl #2
     89c:	e1a06102 	lsl	r6, r2, #2
     8a0:	e3a03000 	mov	r3, #0
    }
}

void plotconstant(int* xValues, int* yValues, int constant) {
    int x;
    for(x = 0; x < 320; x++) {
     8a4:	e1a02003 	mov	r2, r3
        xValues[x] = x;
        if(add) yValues[x] -= -12*constant;
     8a8:	e30b4c4c 	movw	r4, #48204	; 0xbc4c
     8ac:	e3404002 	movt	r4, #2
}

void plotconstant(int* xValues, int* yValues, int constant) {
    int x;
    for(x = 0; x < 320; x++) {
        xValues[x] = x;
     8b0:	e7802003 	str	r2, [r0, r3]
        if(add) yValues[x] -= -12*constant;
     8b4:	e5d4c004 	ldrb	r12, [r4, #4]
     8b8:	e35c0000 	cmp	r12, #0
     8bc:	1791c003 	ldrne	r12, [r1, r3]
     8c0:	108cc005 	addne	r12, r12, r5
     8c4:	1781c003 	strne	r12, [r1, r3]
     8c8:	1a000004 	bne	8e0 <plotconstant+0x54>
        else if(subtract) yValues[x] += -12*constant;
     8cc:	e5d4c005 	ldrb	r12, [r4, #5]
     8d0:	e35c0000 	cmp	r12, #0
     8d4:	1791c003 	ldrne	r12, [r1, r3]
     8d8:	108cc006 	addne	r12, r12, r6
     8dc:	1781c003 	strne	r12, [r1, r3]
    }
}

void plotconstant(int* xValues, int* yValues, int constant) {
    int x;
    for(x = 0; x < 320; x++) {
     8e0:	e2822001 	add	r2, r2, #1
     8e4:	e2833004 	add	r3, r3, #4
     8e8:	e3520d05 	cmp	r2, #320	; 0x140
     8ec:	1affffef 	bne	8b0 <plotconstant+0x24>
        xValues[x] = x;
        if(add) yValues[x] -= -12*constant;
        else if(subtract) yValues[x] += -12*constant;
    }
    
}
     8f0:	e8bd0070 	pop	{r4, r5, r6}
     8f4:	e12fff1e 	bx	lr

000008f8 <drawFunction>:

void drawFunction(int *xValues, int *yValues) {
     8f8:	e92d47f0 	push	{r4, r5, r6, r7, r8, r9, r10, lr}
     8fc:	e24dd008 	sub	sp, sp, #8
     900:	e1a07000 	mov	r7, r0
     904:	e1a06001 	mov	r6, r1
     908:	e3a04000 	mov	r4, #0
    int i;
    for(i = 0; i < 320; i++) {
        int y = 120 - yValues[i];
        if(y > 0 && y < 240 && xValues[i] > 0 && xValues[i] < 320) {
     90c:	e300513f 	movw	r5, #319	; 0x13f
            plot_pixel(xValues[i], y, 0xff00);
     910:	e3e080ff 	mvn	r8, #255	; 0xff
}

void drawFunction(int *xValues, int *yValues) {
    int i;
    for(i = 0; i < 320; i++) {
        int y = 120 - yValues[i];
     914:	e7961004 	ldr	r1, [r6, r4]
     918:	e2611078 	rsb	r1, r1, #120	; 0x78
        if(y > 0 && y < 240 && xValues[i] > 0 && xValues[i] < 320) {
     91c:	e2413001 	sub	r3, r1, #1
     920:	e35300ee 	cmp	r3, #238	; 0xee
     924:	8a000006 	bhi	944 <drawFunction+0x4c>
     928:	e7970004 	ldr	r0, [r7, r4]
     92c:	e3500000 	cmp	r0, #0
     930:	da000003 	ble	944 <drawFunction+0x4c>
     934:	e1500005 	cmp	r0, r5
     938:	ca000001 	bgt	944 <drawFunction+0x4c>
            plot_pixel(xValues[i], y, 0xff00);
     93c:	e1a02008 	mov	r2, r8
     940:	ebfffe4a 	bl	270 <plot_pixel>
     944:	e2844004 	add	r4, r4, #4
    
}

void drawFunction(int *xValues, int *yValues) {
    int i;
    for(i = 0; i < 320; i++) {
     948:	e3540c05 	cmp	r4, #1280	; 0x500
     94c:	1afffff0 	bne	914 <drawFunction+0x1c>
     950:	e3a05000 	mov	r5, #0
     954:	e1a04005 	mov	r4, r5
    
    
    for(i = 0; i < 319; i++) {
        int y = 120 - yValues[i];
        int yNext = 120 - yValues[i+1];
        if(y > 0 && y < 240 && xValues[i] > 0 && xValues[i] < 320) {
     958:	e300a13f 	movw	r10, #319	; 0x13f
            if(yNext > 0 && yNext < 240 && xValues[i+1] > 0 && xValues[i+1] < 320) {
                draw_line(xValues[i], y, xValues[i+1], yNext ,0x0000);
     95c:	e1a09005 	mov	r9, r5
            plot_pixel(xValues[i], y, 0xff00);
        }
    }
    
    
    for(i = 0; i < 319; i++) {
     960:	e30084fc 	movw	r8, #1276	; 0x4fc
     964:	e2855004 	add	r5, r5, #4
        int y = 120 - yValues[i];
     968:	e7961004 	ldr	r1, [r6, r4]
     96c:	e2611078 	rsb	r1, r1, #120	; 0x78
        int yNext = 120 - yValues[i+1];
     970:	e7963005 	ldr	r3, [r6, r5]
        if(y > 0 && y < 240 && xValues[i] > 0 && xValues[i] < 320) {
     974:	e2412001 	sub	r2, r1, #1
     978:	e35200ee 	cmp	r2, #238	; 0xee
     97c:	8a00000f 	bhi	9c0 <drawFunction+0xc8>
     980:	e7970004 	ldr	r0, [r7, r4]
     984:	e3500000 	cmp	r0, #0
     988:	da00000c 	ble	9c0 <drawFunction+0xc8>
     98c:	e150000a 	cmp	r0, r10
     990:	ca00000a 	bgt	9c0 <drawFunction+0xc8>
    }
    
    
    for(i = 0; i < 319; i++) {
        int y = 120 - yValues[i];
        int yNext = 120 - yValues[i+1];
     994:	e2633078 	rsb	r3, r3, #120	; 0x78
        if(y > 0 && y < 240 && xValues[i] > 0 && xValues[i] < 320) {
            if(yNext > 0 && yNext < 240 && xValues[i+1] > 0 && xValues[i+1] < 320) {
     998:	e2432001 	sub	r2, r3, #1
     99c:	e35200ee 	cmp	r2, #238	; 0xee
     9a0:	8a000006 	bhi	9c0 <drawFunction+0xc8>
     9a4:	e7972005 	ldr	r2, [r7, r5]
     9a8:	e3520000 	cmp	r2, #0
     9ac:	da000003 	ble	9c0 <drawFunction+0xc8>
     9b0:	e152000a 	cmp	r2, r10
     9b4:	ca000001 	bgt	9c0 <drawFunction+0xc8>
                draw_line(xValues[i], y, xValues[i+1], yNext ,0x0000);
     9b8:	e58d9000 	str	r9, [sp]
     9bc:	ebfffe32 	bl	28c <draw_line>
     9c0:	e2844004 	add	r4, r4, #4
            plot_pixel(xValues[i], y, 0xff00);
        }
    }
    
    
    for(i = 0; i < 319; i++) {
     9c4:	e1540008 	cmp	r4, r8
     9c8:	1affffe5 	bne	964 <drawFunction+0x6c>
            if(yNext > 0 && yNext < 240 && xValues[i+1] > 0 && xValues[i+1] < 320) {
                draw_line(xValues[i], y, xValues[i+1], yNext ,0x0000);
            }
        }
    }
}
     9cc:	e28dd008 	add	sp, sp, #8
     9d0:	e8bd87f0 	pop	{r4, r5, r6, r7, r8, r9, r10, pc}

000009d4 <check_KEYs>:

void check_KEYs (int * option) {
    volatile int * KEY_ptr = (int *)KEY_BASE;
    int KEY_value;
    
    KEY_value = *(KEY_ptr);
     9d4:	e3a03000 	mov	r3, #0
     9d8:	e34f3f20 	movt	r3, #65312	; 0xff20
     9dc:	e5933050 	ldr	r3, [r3, #80]	; 0x50
    
    if (KEY_value == 0x1)  {
     9e0:	e3530001 	cmp	r3, #1
        *option = 1;
     9e4:	05803000 	streq	r3, [r0]
    volatile int * KEY_ptr = (int *)KEY_BASE;
    int KEY_value;
    
    KEY_value = *(KEY_ptr);
    
    if (KEY_value == 0x1)  {
     9e8:	012fff1e 	bxeq	lr
        *option = 1;
    } else if (KEY_value == 0x2) {
     9ec:	e3530002 	cmp	r3, #2
        *option = 2;
     9f0:	05803000 	streq	r3, [r0]
    
    KEY_value = *(KEY_ptr);
    
    if (KEY_value == 0x1)  {
        *option = 1;
    } else if (KEY_value == 0x2) {
     9f4:	012fff1e 	bxeq	lr
        *option = 2;
    } else if(KEY_value == 0x4) {
     9f8:	e3530004 	cmp	r3, #4
        *option = 3;
     9fc:	03a03003 	moveq	r3, #3
    } else {
        *option = 0;
     a00:	13a03000 	movne	r3, #0
     a04:	e5803000 	str	r3, [r0]
     a08:	e12fff1e 	bx	lr

00000a0c <load_screen>:
    }
}


void load_screen (){
     a0c:	e52d4004 	push	{r4}		; (str r4, [sp, #-4]!)
   volatile short * pixelbuf = 0xc8000000;
   int i, j;
   for (i=0; i<240; i++)
     a10:	e3a0c000 	mov	r12, #0
        *option = 0;
    }
}


void load_screen (){
     a14:	e3004e90 	movw	r4, #3728	; 0xe90
     a18:	e3404000 	movt	r4, #0
     a1c:	ea000006 	b	a3c <load_screen+0x30>
   volatile short * pixelbuf = 0xc8000000;
   int i, j;
   for (i=0; i<240; i++)
   for (j=0; j<320; j++)
   *(pixelbuf + (j<<0) + (i<<9)) = MYIMAGE[i][j];
     a20:	e1f210b2 	ldrh	r1, [r2, #2]!
     a24:	e0c310b2 	strh	r1, [r3], #2

void load_screen (){
   volatile short * pixelbuf = 0xc8000000;
   int i, j;
   for (i=0; i<240; i++)
   for (j=0; j<320; j++)
     a28:	e1530000 	cmp	r3, r0
     a2c:	1afffffb 	bne	a20 <load_screen+0x14>


void load_screen (){
   volatile short * pixelbuf = 0xc8000000;
   int i, j;
   for (i=0; i<240; i++)
     a30:	e28cc001 	add	r12, r12, #1
     a34:	e35c00f0 	cmp	r12, #240	; 0xf0
     a38:	0a000009 	beq	a64 <load_screen+0x58>
   for (j=0; j<320; j++)
   *(pixelbuf + (j<<0) + (i<<9)) = MYIMAGE[i][j];
     a3c:	e1a0048c 	lsl	r0, r12, #9
        *option = 0;
    }
}


void load_screen (){
     a40:	e08c210c 	add	r2, r12, r12, lsl #2
     a44:	e0842382 	add	r2, r4, r2, lsl #7
     a48:	e2422002 	sub	r2, r2, #2
     a4c:	e1a0350c 	lsl	r3, r12, #10
     a50:	e2833332 	add	r3, r3, #-939524096	; 0xc8000000
     a54:	e2800319 	add	r0, r0, #1677721600	; 0x64000000
     a58:	e2800d05 	add	r0, r0, #320	; 0x140
     a5c:	e1a00080 	lsl	r0, r0, #1
     a60:	eaffffee 	b	a20 <load_screen+0x14>
   int i, j;
   for (i=0; i<240; i++)
   for (j=0; j<320; j++)
   *(pixelbuf + (j<<0) + (i<<9)) = MYIMAGE[i][j];
   //while (1);
} 
     a64:	e8bd0010 	ldmfd	sp!, {r4}
     a68:	e12fff1e 	bx	lr

00000a6c <HEX_PS2>:

char HEX_PS2(char b1, char b2, char b3){
     a6c:	e92d0030 	push	{r4, r5}
     a70:	e24dd018 	sub	sp, sp, #24
     a74:	e1a0c002 	mov	r12, r2
    volatile int * HEX3_HEX0_ptr = (int *)HEX3_HEX0_BASE;
    volatile int * HEX5_HEX4_ptr = (int *)HEX5_HEX4_BASE;

    unsigned char seven_seg_decode_table[] = {
     a78:	e30b3478 	movw	r3, #46200	; 0xb478
     a7c:	e3403002 	movt	r3, #2
     a80:	e28d5008 	add	r5, sp, #8
     a84:	e5930000 	ldr	r0, [r3]
     a88:	e5931004 	ldr	r1, [r3, #4]
     a8c:	e5932008 	ldr	r2, [r3, #8]
     a90:	e593300c 	ldr	r3, [r3, #12]
     a94:	e8a5000f 	stmia	r5!, {r0, r1, r2, r3}
            0x3F, 0x06, 0x5B, 0x4F, 0x66, 0x6D, 0x7D, 0x07,
            0x7F, 0x67, 0x77, 0x7C, 0x39, 0x5E, 0x79, 0x71};
    unsigned char hex_segs[] = {0, 0, 0, 0, 0, 0, 0, 0};
     a98:	e3a03000 	mov	r3, #0
     a9c:	e5cd3000 	strb	r3, [sp]
     aa0:	e5cd3001 	strb	r3, [sp, #1]
     aa4:	e5cd3002 	strb	r3, [sp, #2]
     aa8:	e5cd3003 	strb	r3, [sp, #3]
     aac:	e5cd3004 	strb	r3, [sp, #4]
     ab0:	e5cd3005 	strb	r3, [sp, #5]
     ab4:	e5cd3006 	strb	r3, [sp, #6]
     ab8:	e5cd3007 	strb	r3, [sp, #7]
    unsigned int shift_buffer, nibble;
    unsigned char code;
    int i;
    shift_buffer = b3 & 0x0F; //(b1 << 16) | (b2 << 8) | b3;
     abc:	e20c200f 	and	r2, r12, #15
   for (j=0; j<320; j++)
   *(pixelbuf + (j<<0) + (i<<9)) = MYIMAGE[i][j];
   //while (1);
} 

char HEX_PS2(char b1, char b2, char b3){
     ac0:	e24d3001 	sub	r3, sp, #1
     ac4:	e28d0005 	add	r0, sp, #5
    shift_buffer = b3 & 0x0F; //(b1 << 16) | (b2 << 8) | b3;
    for (i = 0; i < 6; ++i) {
        nibble = shift_buffer & 0x0000000F;
        code = seven_seg_decode_table[nibble];
        hex_segs[i] = code;
        shift_buffer = shift_buffer >> 4;
     ac8:	e3a01000 	mov	r1, #0
    unsigned char code;
    int i;
    shift_buffer = b3 & 0x0F; //(b1 << 16) | (b2 << 8) | b3;
    for (i = 0; i < 6; ++i) {
        nibble = shift_buffer & 0x0000000F;
        code = seven_seg_decode_table[nibble];
     acc:	e28d5018 	add	r5, sp, #24
     ad0:	e0852002 	add	r2, r5, r2
        hex_segs[i] = code;
     ad4:	e5522010 	ldrb	r2, [r2, #-16]
     ad8:	e5e32001 	strb	r2, [r3, #1]!
        shift_buffer = shift_buffer >> 4;
     adc:	e1a02001 	mov	r2, r1
    unsigned char hex_segs[] = {0, 0, 0, 0, 0, 0, 0, 0};
    unsigned int shift_buffer, nibble;
    unsigned char code;
    int i;
    shift_buffer = b3 & 0x0F; //(b1 << 16) | (b2 << 8) | b3;
    for (i = 0; i < 6; ++i) {
     ae0:	e1530000 	cmp	r3, r0
     ae4:	1afffff8 	bne	acc <HEX_PS2+0x60>
     ae8:	e30b3748 	movw	r3, #46920	; 0xb748
     aec:	e3403002 	movt	r3, #2
   for (j=0; j<320; j++)
   *(pixelbuf + (j<<0) + (i<<9)) = MYIMAGE[i][j];
   //while (1);
} 

char HEX_PS2(char b1, char b2, char b3){
     af0:	e2832d15 	add	r2, r3, #1344	; 0x540
    }
	
	int j;
	char returnedChar;
	for (j = 0; j < sizeof(characters)/sizeof(char); j++) {
		if(characters[j][0] == b3) {
     af4:	e5931000 	ldr	r1, [r3]
     af8:	e151000c 	cmp	r1, r12
			returnedChar = characters[j][1];
     afc:	05d34004 	ldrbeq	r4, [r3, #4]
     b00:	e2833008 	add	r3, r3, #8
        shift_buffer = shift_buffer >> 4;
    }
	
	int j;
	char returnedChar;
	for (j = 0; j < sizeof(characters)/sizeof(char); j++) {
     b04:	e1530002 	cmp	r3, r2
     b08:	1afffff9 	bne	af4 <HEX_PS2+0x88>
		if(characters[j][0] == b3) {
			returnedChar = characters[j][1];
		}
	}

    *(HEX3_HEX0_ptr) = *(int *)(hex_segs);
     b0c:	e3a03000 	mov	r3, #0
     b10:	e34f3f20 	movt	r3, #65312	; 0xff20
     b14:	e59d2000 	ldr	r2, [sp]
     b18:	e5832020 	str	r2, [r3, #32]
    *(HEX5_HEX4_ptr) = *(int *)(hex_segs + 4);
     b1c:	e59d2004 	ldr	r2, [sp, #4]
     b20:	e5832030 	str	r2, [r3, #48]	; 0x30
    
    return returnedChar;
}
     b24:	e1a00004 	mov	r0, r4
     b28:	e28dd018 	add	sp, sp, #24
     b2c:	e8bd0030 	pop	{r4, r5}
     b30:	e12fff1e 	bx	lr

00000b34 <append>:

void append(char* s, char c)
{
     b34:	e92d4038 	push	{r3, r4, r5, lr}
     b38:	e1a05000 	mov	r5, r0
     b3c:	e1a04001 	mov	r4, r1
    int len = strlen(s);
     b40:	eb00a904 	bl	2af58 <strlen>
    s[len] = c;
     b44:	e1a03005 	mov	r3, r5
     b48:	e7e34000 	strb	r4, [r3, r0]!
    s[len+1] = '\0';
     b4c:	e3a02000 	mov	r2, #0
     b50:	e5c32001 	strb	r2, [r3, #1]
     b54:	e8bd8038 	pop	{r3, r4, r5, pc}

00000b58 <main>:
}

int main(void){
     b58:	e92d4ff0 	push	{r4, r5, r6, r7, r8, r9, r10, r11, lr}
     b5c:	e24ddec1 	sub	sp, sp, #3088	; 0xc10
     b60:	e24dd00c 	sub	sp, sp, #12
    volatile int * pixel_ctrl_ptr = (int *)0xFF203020;
    /* Read location of the pixel buffer from the pixel buffer controller */
    pixel_buffer_start = *pixel_ctrl_ptr;
     b64:	e3033fff 	movw	r3, #16383	; 0x3fff
     b68:	e34f3f20 	movt	r3, #65312	; 0xff20
     b6c:	e5132fdf 	ldr	r2, [r3, #-4063]	; 0xfffff021
     b70:	e30b3c4c 	movw	r3, #48204	; 0xbc4c
     b74:	e3403002 	movt	r3, #2
     b78:	e5832000 	str	r2, [r3]
    
    int option;
    while(true) {
        check_KEYs(&option);
     b7c:	e28d0ec1 	add	r0, sp, #3088	; 0xc10
     b80:	e2800004 	add	r0, r0, #4
     b84:	ebffff92 	bl	9d4 <check_KEYs>
        load_screen();
     b88:	ebffff9f 	bl	a0c <load_screen>
        if(option != 0) break;
     b8c:	e59d3c14 	ldr	r3, [sp, #3092]	; 0xc14
     b90:	e3530000 	cmp	r3, #0
     b94:	0afffff8 	beq	b7c <main+0x24>
    }
    clear_screen();
     b98:	ebfffdfd 	bl	394 <clear_screen>
    background();
     b9c:	ebfffe0d 	bl	3d8 <background>
    int PS2_data, RVALID;
    
    int holdPower = -1, holdXShift = -1, holdYShift = -1;
    
    char eqn[512];
    int xValues[320] = {0};
     ba0:	e3a04c05 	mov	r4, #1280	; 0x500
     ba4:	e28d1e51 	add	r1, sp, #1296	; 0x510
     ba8:	e2811008 	add	r1, r1, #8
     bac:	e2410004 	sub	r0, r1, #4
     bb0:	e3a01000 	mov	r1, #0
     bb4:	e1a02004 	mov	r2, r4
     bb8:	eb00a899 	bl	2ae24 <memset>
    int yValues[320] = {0};
     bbc:	e28d0014 	add	r0, sp, #20
     bc0:	e3a01000 	mov	r1, #0
     bc4:	e1a02004 	mov	r2, r4
     bc8:	eb00a895 	bl	2ae24 <memset>
     bcc:	e28d7014 	add	r7, sp, #20
    int len = strlen(s);
    s[len] = c;
    s[len+1] = '\0';
}

int main(void){
     bd0:	e2873e4f 	add	r3, r7, #1264	; 0x4f0
     bd4:	e283300c 	add	r3, r3, #12
     bd8:	e58d3008 	str	r3, [sp, #8]
        background();
        
        bool reachedEnd = false;
        int startingPoint = 0;
        char* expression;
        expression = strtok(eqn, " ");
     bdc:	e30b1488 	movw	r1, #46216	; 0xb488
     be0:	e3401002 	movt	r1, #2
     be4:	e58d100c 	str	r1, [sp, #12]
        
        while(true) {
            if(expression == NULL) {
                break;
            } else if(expression[0] == '+') {
                add = true, subtract = false, multiply = false;
     be8:	e30b9c4c 	movw	r9, #48204	; 0xbc4c
     bec:	e3409002 	movt	r9, #2
    char eqn[512];
    int xValues[320] = {0};
    int yValues[320] = {0};
    
    while(true) {
        PS2_data = *(PS2_ptr); // read the Data register in the PS/2 port
     bf0:	e3a03000 	mov	r3, #0
     bf4:	e34f3f20 	movt	r3, #65312	; 0xff20
     bf8:	e5933100 	ldr	r3, [r3, #256]	; 0x100
        char byte1;
        byte1 = PS2_data & 0xFF;
        char returnedChar = '0';
        
        while(returnedChar != 'r') {
            PS2_data = *(PS2_ptr);
     bfc:	e3a05000 	mov	r5, #0
     c00:	e34f5f20 	movt	r5, #65312	; 0xff20
            byte1 = PS2_data & 0xFF;
            RVALID = PS2_data & 0x8000;
            if(RVALID) {
                byte1 = PS2_data & 0xFF;
                
                returnedChar = HEX_PS2(0,0,byte1);
     c04:	e3a08000 	mov	r8, #0
                    int i;
                    for(i =0; i < 320; i++) {
                        yValues[i] = 0;
                    }
                    break;
                } else if(returnedChar != 'r' && returnedChar != eqn[strlen(eqn)-1]) {
     c08:	e3e0af81 	mvn	r10, #516	; 0x204
     c0c:	ea000026 	b	cac <main+0x154>
        char byte1;
        byte1 = PS2_data & 0xFF;
        char returnedChar = '0';
        
        while(returnedChar != 'r') {
            PS2_data = *(PS2_ptr);
     c10:	e5952100 	ldr	r2, [r5, #256]	; 0x100
            byte1 = PS2_data & 0xFF;
            RVALID = PS2_data & 0x8000;
            if(RVALID) {
     c14:	e2124902 	ands	r4, r2, #32768	; 0x8000
     c18:	0afffffc 	beq	c10 <main+0xb8>
                byte1 = PS2_data & 0xFF;
                
                returnedChar = HEX_PS2(0,0,byte1);
     c1c:	e1a00008 	mov	r0, r8
     c20:	e1a01008 	mov	r1, r8
     c24:	e6ef2072 	uxtb	r2, r2
     c28:	ebffff8f 	bl	a6c <HEX_PS2>
     c2c:	e1a06000 	mov	r6, r0
                
                if(returnedChar == '~') {
     c30:	e350007e 	cmp	r0, #126	; 0x7e
     c34:	1a000006 	bne	c54 <main+0xfc>
     c38:	e2473004 	sub	r3, r7, #4
                    int i;
                    for(i =0; i < 320; i++) {
                        yValues[i] = 0;
     c3c:	e3a02000 	mov	r2, #0
     c40:	e5a32004 	str	r2, [r3, #4]!
                
                returnedChar = HEX_PS2(0,0,byte1);
                
                if(returnedChar == '~') {
                    int i;
                    for(i =0; i < 320; i++) {
     c44:	e59d1008 	ldr	r1, [sp, #8]
     c48:	e1530001 	cmp	r3, r1
     c4c:	1afffffb 	bne	c40 <main+0xe8>
     c50:	ea000019 	b	cbc <main+0x164>
                        yValues[i] = 0;
                    }
                    break;
                } else if(returnedChar != 'r' && returnedChar != eqn[strlen(eqn)-1]) {
     c54:	e3500072 	cmp	r0, #114	; 0x72
     c58:	0a00000c 	beq	c90 <main+0x138>
     c5c:	e28d0ea1 	add	r0, sp, #2576	; 0xa10
     c60:	e2800004 	add	r0, r0, #4
     c64:	eb00a8bb 	bl	2af58 <strlen>
     c68:	e28d3ec1 	add	r3, sp, #3088	; 0xc10
     c6c:	e2833008 	add	r3, r3, #8
     c70:	e0830000 	add	r0, r3, r0
     c74:	e7d0300a 	ldrb	r3, [r0, r10]
     c78:	e1530006 	cmp	r3, r6
     c7c:	0a000003 	beq	c90 <main+0x138>
                    append(eqn, returnedChar);
     c80:	e28d0ea1 	add	r0, sp, #2576	; 0xa10
     c84:	e2800004 	add	r0, r0, #4
     c88:	e1a01006 	mov	r1, r6
     c8c:	ebffffa8 	bl	b34 <append>
                }
                
                while(RVALID) {
     c90:	e3540000 	cmp	r4, #0
     c94:	0a000002 	beq	ca4 <main+0x14c>
                    PS2_data = *(PS2_ptr);
     c98:	e5953100 	ldr	r3, [r5, #256]	; 0x100
                    break;
                } else if(returnedChar != 'r' && returnedChar != eqn[strlen(eqn)-1]) {
                    append(eqn, returnedChar);
                }
                
                while(RVALID) {
     c9c:	e3130902 	tst	r3, #32768	; 0x8000
     ca0:	1afffffc 	bne	c98 <main+0x140>
        RVALID = PS2_data & 0x8000; // extract the RVALID field
        char byte1;
        byte1 = PS2_data & 0xFF;
        char returnedChar = '0';
        
        while(returnedChar != 'r') {
     ca4:	e3560072 	cmp	r6, #114	; 0x72
     ca8:	0a000003 	beq	cbc <main+0x164>
            PS2_data = *(PS2_ptr);
     cac:	e5952100 	ldr	r2, [r5, #256]	; 0x100
            byte1 = PS2_data & 0xFF;
            RVALID = PS2_data & 0x8000;
            if(RVALID) {
     cb0:	e2124902 	ands	r4, r2, #32768	; 0x8000
     cb4:	0affffd5 	beq	c10 <main+0xb8>
     cb8:	eaffffd7 	b	c1c <main+0xc4>
        }
        returnedChar = '0';
        
        // Find the length of the character array
        int charLength = 0;
        while(eqn[charLength] != '\0') {
     cbc:	e5dd3a14 	ldrb	r3, [sp, #2580]	; 0xa14
     cc0:	e3530000 	cmp	r3, #0
     cc4:	0a000004 	beq	cdc <main+0x184>
     cc8:	e28d3ea1 	add	r3, sp, #2576	; 0xa10
     ccc:	e2833004 	add	r3, r3, #4
     cd0:	e5f32001 	ldrb	r2, [r3, #1]!
     cd4:	e3520000 	cmp	r2, #0
     cd8:	1afffffc 	bne	cd0 <main+0x178>
            charLength++;
        }
        
        background();
     cdc:	ebfffdbd 	bl	3d8 <background>
        
        bool reachedEnd = false;
        int startingPoint = 0;
        char* expression;
        expression = strtok(eqn, " ");
     ce0:	e28d0ea1 	add	r0, sp, #2576	; 0xa10
     ce4:	e2800004 	add	r0, r0, #4
     ce8:	e59d100c 	ldr	r1, [sp, #12]
     cec:	eb00a8b1 	bl	2afb8 <strtok>
        
        while(true) {
            if(expression == NULL) {
     cf0:	e2505000 	subs	r5, r0, #0
     cf4:	0a000057 	beq	e58 <main+0x300>
                    break;
                } else if(expression[i] == 'e') {
                    plote(xValues, yValues);
                    break;
                } else if(expression[i] >= '0' && expression[i] <= '9') {
                    plotconstant(xValues, yValues, expression[i] - '0');
     cf8:	e28d1e51 	add	r1, sp, #1296	; 0x510
     cfc:	e2811008 	add	r1, r1, #8
     d00:	e2418004 	sub	r8, r1, #4
        expression = strtok(eqn, " ");
        
        while(true) {
            if(expression == NULL) {
                break;
            } else if(expression[0] == '+') {
     d04:	e5d53000 	ldrb	r3, [r5]
     d08:	e353002b 	cmp	r3, #43	; 0x2b
     d0c:	1a000008 	bne	d34 <main+0x1dc>
                add = true, subtract = false, multiply = false;
     d10:	e3a03001 	mov	r3, #1
     d14:	e5c93004 	strb	r3, [r9, #4]
     d18:	e3a03000 	mov	r3, #0
     d1c:	e5c93005 	strb	r3, [r9, #5]
     d20:	e5c93006 	strb	r3, [r9, #6]
            int i;
            for(i = 0; i < strlen(expression); i++) {
                if(expression[i] == 'x') {
                    int number;
                    if(strlen(expression) == 1) {
                        number = 1;
     d24:	e3a04000 	mov	r4, #0
                    } else {
                        number = expression[i+1]-'0';
                    }
                    plotx(number, 0, 0, xValues, yValues);
     d28:	e1a0a004 	mov	r10, r4
            int i;
            for(i = 0; i < strlen(expression); i++) {
                if(expression[i] == 'x') {
                    int number;
                    if(strlen(expression) == 1) {
                        number = 1;
     d2c:	e3a0b001 	mov	r11, #1
     d30:	ea00003e 	b	e30 <main+0x2d8>
        while(true) {
            if(expression == NULL) {
                break;
            } else if(expression[0] == '+') {
                add = true, subtract = false, multiply = false;
            } else if(expression[0] == '-') {
     d34:	e353002d 	cmp	r3, #45	; 0x2d
     d38:	1a000005 	bne	d54 <main+0x1fc>
                add = false, subtract = true, multiply = false;
     d3c:	e3a03000 	mov	r3, #0
     d40:	e5c93004 	strb	r3, [r9, #4]
     d44:	e3a02001 	mov	r2, #1
     d48:	e5c92005 	strb	r2, [r9, #5]
     d4c:	e5c93006 	strb	r3, [r9, #6]
     d50:	eafffff3 	b	d24 <main+0x1cc>
            } else if(expression[0] == '*') {
     d54:	e353002a 	cmp	r3, #42	; 0x2a
                add = false, subtract = false, multiply = true;
     d58:	03a03000 	moveq	r3, #0
     d5c:	05c93004 	strbeq	r3, [r9, #4]
     d60:	05c93005 	strbeq	r3, [r9, #5]
     d64:	03a03001 	moveq	r3, #1
            } else {
                add = true, subtract = false, multiply = false;
     d68:	13a03001 	movne	r3, #1
     d6c:	15c93004 	strbne	r3, [r9, #4]
     d70:	13a03000 	movne	r3, #0
     d74:	15c93005 	strbne	r3, [r9, #5]
     d78:	e5c93006 	strb	r3, [r9, #6]
     d7c:	eaffffe8 	b	d24 <main+0x1cc>
            }
            int i;
            for(i = 0; i < strlen(expression); i++) {
                if(expression[i] == 'x') {
     d80:	e7d52004 	ldrb	r2, [r5, r4]
     d84:	e3520078 	cmp	r2, #120	; 0x78
     d88:	1a00000b 	bne	dbc <main+0x264>
                    int number;
                    if(strlen(expression) == 1) {
     d8c:	e3500001 	cmp	r0, #1
                        number = 1;
                    } else {
                        number = expression[i+1]-'0';
     d90:	10856006 	addne	r6, r5, r6
     d94:	15d60001 	ldrbne	r0, [r6, #1]
     d98:	12400030 	subne	r0, r0, #48	; 0x30
            int i;
            for(i = 0; i < strlen(expression); i++) {
                if(expression[i] == 'x') {
                    int number;
                    if(strlen(expression) == 1) {
                        number = 1;
     d9c:	01a0000b 	moveq	r0, r11
                    } else {
                        number = expression[i+1]-'0';
                    }
                    plotx(number, 0, 0, xValues, yValues);
     da0:	e58d7000 	str	r7, [sp]
     da4:	e1a0100a 	mov	r1, r10
     da8:	e1a0200a 	mov	r2, r10
     dac:	e1a03008 	mov	r3, r8
     db0:	ebfffe7a 	bl	7a0 <plotx>
                    i++;
     db4:	e2844001 	add	r4, r4, #1
     db8:	ea00001b 	b	e2c <main+0x2d4>
                } else if(expression[i] == 's') {
     dbc:	e3520073 	cmp	r2, #115	; 0x73
     dc0:	1a000004 	bne	dd8 <main+0x280>
                    plotsin(xValues, yValues, false);
     dc4:	e1a00008 	mov	r0, r8
     dc8:	e1a01007 	mov	r1, r7
     dcc:	e3a02000 	mov	r2, #0
     dd0:	ebfffdc5 	bl	4ec <plotsin>
                    break;
     dd4:	ea00001a 	b	e44 <main+0x2ec>
                } else if(expression[i] == 'c') {
     dd8:	e3520063 	cmp	r2, #99	; 0x63
     ddc:	1a000004 	bne	df4 <main+0x29c>
                    plotsin(xValues, yValues, true);
     de0:	e1a00008 	mov	r0, r8
     de4:	e1a01007 	mov	r1, r7
     de8:	e3a02001 	mov	r2, #1
     dec:	ebfffdbe 	bl	4ec <plotsin>
                    break;
     df0:	ea000013 	b	e44 <main+0x2ec>
                } else if(expression[i] == 'e') {
     df4:	e3520065 	cmp	r2, #101	; 0x65
     df8:	1a000003 	bne	e0c <main+0x2b4>
                    plote(xValues, yValues);
     dfc:	e1a00008 	mov	r0, r8
     e00:	e1a01007 	mov	r1, r7
     e04:	ebfffe1d 	bl	680 <plote>
                    break;
     e08:	ea00000d 	b	e44 <main+0x2ec>
                } else if(expression[i] >= '0' && expression[i] <= '9') {
     e0c:	e2423030 	sub	r3, r2, #48	; 0x30
     e10:	e6ef3073 	uxtb	r3, r3
     e14:	e3530009 	cmp	r3, #9
     e18:	8a000003 	bhi	e2c <main+0x2d4>
                    plotconstant(xValues, yValues, expression[i] - '0');
     e1c:	e1a00008 	mov	r0, r8
     e20:	e1a01007 	mov	r1, r7
     e24:	e2422030 	sub	r2, r2, #48	; 0x30
     e28:	ebfffe97 	bl	88c <plotconstant>
                add = false, subtract = false, multiply = true;
            } else {
                add = true, subtract = false, multiply = false;
            }
            int i;
            for(i = 0; i < strlen(expression); i++) {
     e2c:	e2844001 	add	r4, r4, #1
     e30:	e1a06004 	mov	r6, r4
     e34:	e1a00005 	mov	r0, r5
     e38:	eb00a846 	bl	2af58 <strlen>
     e3c:	e1540000 	cmp	r4, r0
     e40:	3affffce 	bcc	d80 <main+0x228>
                    break;
                } else if(expression[i] >= '0' && expression[i] <= '9') {
                    plotconstant(xValues, yValues, expression[i] - '0');
                }
            }
            expression = strtok(NULL, " ");
     e44:	e3a00000 	mov	r0, #0
     e48:	e59d100c 	ldr	r1, [sp, #12]
     e4c:	eb00a859 	bl	2afb8 <strtok>
        int startingPoint = 0;
        char* expression;
        expression = strtok(eqn, " ");
        
        while(true) {
            if(expression == NULL) {
     e50:	e2505000 	subs	r5, r0, #0
     e54:	1affffaa 	bne	d04 <main+0x1ac>
                charTraverse++;
            } else if(eqn[charTraverse] == 's') {
                plotsin(xValues, yValues, false);
            }
        } */
        drawFunction(xValues, yValues);
     e58:	e28d3e51 	add	r3, sp, #1296	; 0x510
     e5c:	e2833008 	add	r3, r3, #8
     e60:	e2430004 	sub	r0, r3, #4
     e64:	e1a01007 	mov	r1, r7
     e68:	ebfffea2 	bl	8f8 <drawFunction>
     e6c:	e28d3ea1 	add	r3, sp, #2576	; 0xa10
     e70:	e2833003 	add	r3, r3, #3
    int len = strlen(s);
    s[len] = c;
    s[len+1] = '\0';
}

int main(void){
     e74:	e28d1ec1 	add	r1, sp, #3088	; 0xc10
     e78:	e2811003 	add	r1, r1, #3
        } */
        drawFunction(xValues, yValues);
        
        int charEmpty = 0;
        for(charEmpty = 0; charEmpty < 512; charEmpty++) {
            eqn[charEmpty] = '\0';
     e7c:	e3a02000 	mov	r2, #0
     e80:	e5e32001 	strb	r2, [r3, #1]!
            }
        } */
        drawFunction(xValues, yValues);
        
        int charEmpty = 0;
        for(charEmpty = 0; charEmpty < 512; charEmpty++) {
     e84:	e1530001 	cmp	r3, r1
     e88:	1afffffc 	bne	e80 <main+0x328>
     e8c:	eaffff57 	b	bf0 <main+0x98>

00000e90 <MYIMAGE>:
     e90:	1e050004 	.word	0x1e050004
     e94:	ffbef77d 	.word	0xffbef77d
     e98:	ffbef79e 	.word	0xffbef79e
     e9c:	f79ef7be 	.word	0xf79ef7be
     ea0:	f79ef79e 	.word	0xf79ef79e
     ea4:	f79ef79e 	.word	0xf79ef79e
     ea8:	f79ef79e 	.word	0xf79ef79e
     eac:	f79ef79e 	.word	0xf79ef79e
     eb0:	f79ef79e 	.word	0xf79ef79e
     eb4:	f79ef79e 	.word	0xf79ef79e
     eb8:	f79ef79e 	.word	0xf79ef79e
     ebc:	f79ef79e 	.word	0xf79ef79e
     ec0:	f79ef79e 	.word	0xf79ef79e
     ec4:	f7bef7be 	.word	0xf7bef7be
     ec8:	f79ef79e 	.word	0xf79ef79e
     ecc:	f79ef79e 	.word	0xf79ef79e
     ed0:	ffdfffbf 	.word	0xffdfffbf
     ed4:	ffbfffdf 	.word	0xffbfffdf
     ed8:	ffbfffbf 	.word	0xffbfffbf
     edc:	ffdfffdf 	.word	0xffdfffdf
     ee0:	ffdfffdf 	.word	0xffdfffdf
     ee4:	ffdfffdf 	.word	0xffdfffdf
     ee8:	ffbeffdf 	.word	0xffbeffdf
     eec:	f79effbe 	.word	0xf79effbe
     ef0:	f79ef79e 	.word	0xf79ef79e
     ef4:	f79ef79e 	.word	0xf79ef79e
     ef8:	f79ef7be 	.word	0xf79ef7be
     efc:	f79ef79e 	.word	0xf79ef79e
     f00:	f79ef79e 	.word	0xf79ef79e
     f04:	f79ef79e 	.word	0xf79ef79e
     f08:	f79ef79e 	.word	0xf79ef79e
     f0c:	f79ef79e 	.word	0xf79ef79e
     f10:	f79ef79e 	.word	0xf79ef79e
     f14:	f79ef79e 	.word	0xf79ef79e
     f18:	f79ef79e 	.word	0xf79ef79e
     f1c:	f79ef79e 	.word	0xf79ef79e
     f20:	f79ef79e 	.word	0xf79ef79e
     f24:	f79ef79e 	.word	0xf79ef79e
     f28:	f79ef79e 	.word	0xf79ef79e
     f2c:	f79ef79e 	.word	0xf79ef79e
     f30:	f79ef79e 	.word	0xf79ef79e
     f34:	f79ef79e 	.word	0xf79ef79e
     f38:	f79ef79e 	.word	0xf79ef79e
     f3c:	f79ef79e 	.word	0xf79ef79e
     f40:	f79ef79e 	.word	0xf79ef79e
     f44:	f79ef79e 	.word	0xf79ef79e
     f48:	f79ef79e 	.word	0xf79ef79e
     f4c:	f79ef79e 	.word	0xf79ef79e
     f50:	f79ef79e 	.word	0xf79ef79e
     f54:	f79ef79e 	.word	0xf79ef79e
     f58:	f79ef79e 	.word	0xf79ef79e
     f5c:	f79ef79e 	.word	0xf79ef79e
     f60:	f79ef79e 	.word	0xf79ef79e
     f64:	f79ef79e 	.word	0xf79ef79e
     f68:	f79ef79e 	.word	0xf79ef79e
     f6c:	f79ef79e 	.word	0xf79ef79e
     f70:	f79ef79e 	.word	0xf79ef79e
     f74:	f79ef79e 	.word	0xf79ef79e
     f78:	f79ef79e 	.word	0xf79ef79e
     f7c:	f79ef79e 	.word	0xf79ef79e
     f80:	f79ef79e 	.word	0xf79ef79e
     f84:	f79ef79e 	.word	0xf79ef79e
     f88:	f79ef79e 	.word	0xf79ef79e
     f8c:	f79ef79e 	.word	0xf79ef79e
     f90:	f79ef79e 	.word	0xf79ef79e
     f94:	f79ef79e 	.word	0xf79ef79e
     f98:	f79ef79e 	.word	0xf79ef79e
     f9c:	f79ef79e 	.word	0xf79ef79e
     fa0:	f79ef79e 	.word	0xf79ef79e
     fa4:	f79ef79e 	.word	0xf79ef79e
     fa8:	f79ef79e 	.word	0xf79ef79e
     fac:	f79ef79e 	.word	0xf79ef79e
     fb0:	f79ef79e 	.word	0xf79ef79e
     fb4:	f79ef79e 	.word	0xf79ef79e
     fb8:	f79ef79e 	.word	0xf79ef79e
     fbc:	f79ef79e 	.word	0xf79ef79e
     fc0:	f79ef79e 	.word	0xf79ef79e
     fc4:	f79ef79e 	.word	0xf79ef79e
     fc8:	f79ef79e 	.word	0xf79ef79e
     fcc:	f79ef79e 	.word	0xf79ef79e
     fd0:	f79ef79e 	.word	0xf79ef79e
     fd4:	f79ef79e 	.word	0xf79ef79e
     fd8:	ff9eff9e 	.word	0xff9eff9e
     fdc:	ff9eff9e 	.word	0xff9eff9e
     fe0:	f79ef79e 	.word	0xf79ef79e
     fe4:	f79ef79e 	.word	0xf79ef79e
     fe8:	f79ef79e 	.word	0xf79ef79e
     fec:	f79ef79e 	.word	0xf79ef79e
     ff0:	ff9eff9e 	.word	0xff9eff9e
     ff4:	ff9eff9e 	.word	0xff9eff9e
     ff8:	ff9eff9e 	.word	0xff9eff9e
     ffc:	f79ef79e 	.word	0xf79ef79e
    1000:	f79ef79e 	.word	0xf79ef79e
    1004:	f79ef79e 	.word	0xf79ef79e
    1008:	f79ef79e 	.word	0xf79ef79e
    100c:	f79ef79e 	.word	0xf79ef79e
    1010:	f79ef79e 	.word	0xf79ef79e
    1014:	f79ef79e 	.word	0xf79ef79e
    1018:	f79ef79e 	.word	0xf79ef79e
    101c:	f79ef79e 	.word	0xf79ef79e
    1020:	f79ef79e 	.word	0xf79ef79e
    1024:	f79ef79e 	.word	0xf79ef79e
    1028:	f79ef79e 	.word	0xf79ef79e
    102c:	f79ef79e 	.word	0xf79ef79e
    1030:	f79ef79e 	.word	0xf79ef79e
    1034:	f79ef79e 	.word	0xf79ef79e
    1038:	f79ef79e 	.word	0xf79ef79e
    103c:	f79ef79e 	.word	0xf79ef79e
    1040:	f79ef79e 	.word	0xf79ef79e
    1044:	f79ef79e 	.word	0xf79ef79e
    1048:	f79ef79e 	.word	0xf79ef79e
    104c:	f79ef79e 	.word	0xf79ef79e
    1050:	f79ef79e 	.word	0xf79ef79e
    1054:	f79ef79e 	.word	0xf79ef79e
    1058:	f79ef79e 	.word	0xf79ef79e
    105c:	f79ef79e 	.word	0xf79ef79e
    1060:	f79ef79e 	.word	0xf79ef79e
    1064:	f79ef79e 	.word	0xf79ef79e
    1068:	f79ef79e 	.word	0xf79ef79e
    106c:	f79ef79e 	.word	0xf79ef79e
    1070:	f79ef79e 	.word	0xf79ef79e
    1074:	ff9eff9e 	.word	0xff9eff9e
    1078:	ff9eff9e 	.word	0xff9eff9e
    107c:	ff9eff9e 	.word	0xff9eff9e
    1080:	ff9eff9e 	.word	0xff9eff9e
    1084:	ff9eff9e 	.word	0xff9eff9e
    1088:	ff9eff9e 	.word	0xff9eff9e
    108c:	ff9eff9e 	.word	0xff9eff9e
    1090:	ff9eff9e 	.word	0xff9eff9e
    1094:	ff9eff9e 	.word	0xff9eff9e
    1098:	ff9eff9e 	.word	0xff9eff9e
    109c:	ff9eff9e 	.word	0xff9eff9e
    10a0:	ff9eff9e 	.word	0xff9eff9e
    10a4:	ff9eff9e 	.word	0xff9eff9e
    10a8:	ff9eff9e 	.word	0xff9eff9e
    10ac:	ff9eff9e 	.word	0xff9eff9e
    10b0:	ff9eff9e 	.word	0xff9eff9e
    10b4:	f79ef79e 	.word	0xf79ef79e
    10b8:	f79ef79e 	.word	0xf79ef79e
    10bc:	f79ef79e 	.word	0xf79ef79e
    10c0:	f79ef79e 	.word	0xf79ef79e
    10c4:	f79ef79e 	.word	0xf79ef79e
    10c8:	f79ef79e 	.word	0xf79ef79e
    10cc:	f79ef79e 	.word	0xf79ef79e
    10d0:	f79ef79e 	.word	0xf79ef79e
    10d4:	f79ef79e 	.word	0xf79ef79e
    10d8:	f79ef79e 	.word	0xf79ef79e
    10dc:	f79ef79e 	.word	0xf79ef79e
    10e0:	f79ef79e 	.word	0xf79ef79e
    10e4:	f79ef79e 	.word	0xf79ef79e
    10e8:	f79ef79e 	.word	0xf79ef79e
    10ec:	f79ef79e 	.word	0xf79ef79e
    10f0:	f79ef79e 	.word	0xf79ef79e
    10f4:	ff9eff9e 	.word	0xff9eff9e
    10f8:	ff9eff9e 	.word	0xff9eff9e
    10fc:	ff9eff9e 	.word	0xff9eff9e
    1100:	ff9eff9e 	.word	0xff9eff9e
    1104:	ff9eff9e 	.word	0xff9eff9e
    1108:	ff9effbe 	.word	0xff9effbe
    110c:	ff9eff9e 	.word	0xff9eff9e
    1110:	f77eff9e 	.word	0xf77eff9e
    1114:	ff9eef1c 	.word	0xff9eef1c
    1118:	f79ef79e 	.word	0xf79ef79e
    111c:	f79ef79e 	.word	0xf79ef79e
    1120:	f79ef79e 	.word	0xf79ef79e
    1124:	f79ef79e 	.word	0xf79ef79e
    1128:	f79ef79e 	.word	0xf79ef79e
    112c:	f79ef79e 	.word	0xf79ef79e
    1130:	f79ef79e 	.word	0xf79ef79e
    1134:	f79ef79e 	.word	0xf79ef79e
    1138:	f79ef79e 	.word	0xf79ef79e
    113c:	f79ef79e 	.word	0xf79ef79e
    1140:	f79ef79e 	.word	0xf79ef79e
    1144:	f79ef7be 	.word	0xf79ef7be
    1148:	f79ef79e 	.word	0xf79ef79e
    114c:	f7bef79e 	.word	0xf7bef79e
    1150:	ffbfffbf 	.word	0xffbfffbf
    1154:	ffbfffbf 	.word	0xffbfffbf
    1158:	ffbfffbf 	.word	0xffbfffbf
    115c:	ffdfffbf 	.word	0xffdfffbf
    1160:	ffdfffdf 	.word	0xffdfffdf
    1164:	ffdfffdf 	.word	0xffdfffdf
    1168:	ffbeffdf 	.word	0xffbeffdf
    116c:	ffbeffbe 	.word	0xffbeffbe
    1170:	f79ef7be 	.word	0xf79ef7be
    1174:	f79ef79e 	.word	0xf79ef79e
    1178:	f79ef79e 	.word	0xf79ef79e
    117c:	f79ef79e 	.word	0xf79ef79e
    1180:	f79ef79e 	.word	0xf79ef79e
    1184:	f79ef79e 	.word	0xf79ef79e
    1188:	f79ef79e 	.word	0xf79ef79e
    118c:	f79ef79e 	.word	0xf79ef79e
    1190:	f79ef79e 	.word	0xf79ef79e
    1194:	f79ef79e 	.word	0xf79ef79e
    1198:	f79ef79e 	.word	0xf79ef79e
    119c:	f79ef79e 	.word	0xf79ef79e
    11a0:	f79ef79e 	.word	0xf79ef79e
    11a4:	f79ef79e 	.word	0xf79ef79e
    11a8:	f79ef79e 	.word	0xf79ef79e
    11ac:	f79ef79e 	.word	0xf79ef79e
    11b0:	f79ef79e 	.word	0xf79ef79e
    11b4:	f79ef79e 	.word	0xf79ef79e
    11b8:	f79ef79e 	.word	0xf79ef79e
    11bc:	f79ef79e 	.word	0xf79ef79e
    11c0:	f79ef79e 	.word	0xf79ef79e
    11c4:	f79ef79e 	.word	0xf79ef79e
    11c8:	f79ef79e 	.word	0xf79ef79e
    11cc:	f79ef79e 	.word	0xf79ef79e
    11d0:	f79ef79e 	.word	0xf79ef79e
    11d4:	f79ef79e 	.word	0xf79ef79e
    11d8:	f79ef79e 	.word	0xf79ef79e
    11dc:	f79ef79e 	.word	0xf79ef79e
    11e0:	f79ef79e 	.word	0xf79ef79e
    11e4:	f79ef79e 	.word	0xf79ef79e
    11e8:	f79ef79e 	.word	0xf79ef79e
    11ec:	f79ef79e 	.word	0xf79ef79e
    11f0:	f79ef79e 	.word	0xf79ef79e
    11f4:	f79ef79e 	.word	0xf79ef79e
    11f8:	f79ef79e 	.word	0xf79ef79e
    11fc:	f79ef79e 	.word	0xf79ef79e
    1200:	f79ef79e 	.word	0xf79ef79e
    1204:	f79ef79e 	.word	0xf79ef79e
    1208:	f79ef79e 	.word	0xf79ef79e
    120c:	f79ef79e 	.word	0xf79ef79e
    1210:	f79ef79e 	.word	0xf79ef79e
    1214:	f79ef79e 	.word	0xf79ef79e
    1218:	f79ef79e 	.word	0xf79ef79e
    121c:	f79ef79e 	.word	0xf79ef79e
    1220:	f79ef79e 	.word	0xf79ef79e
    1224:	f79ef79e 	.word	0xf79ef79e
    1228:	f79ef79e 	.word	0xf79ef79e
    122c:	f79ef79e 	.word	0xf79ef79e
    1230:	f79ef79e 	.word	0xf79ef79e
    1234:	f79ef79e 	.word	0xf79ef79e
    1238:	f79ef79e 	.word	0xf79ef79e
    123c:	f79ef79e 	.word	0xf79ef79e
    1240:	f79ef79e 	.word	0xf79ef79e
    1244:	f79ef79e 	.word	0xf79ef79e
    1248:	f79ef79e 	.word	0xf79ef79e
    124c:	f79ef79e 	.word	0xf79ef79e
    1250:	f79ef79e 	.word	0xf79ef79e
    1254:	f79ef79e 	.word	0xf79ef79e
    1258:	ff9eff9e 	.word	0xff9eff9e
    125c:	ff9eff9e 	.word	0xff9eff9e
    1260:	f79ef79e 	.word	0xf79ef79e
    1264:	f79ef79e 	.word	0xf79ef79e
    1268:	f79ef79e 	.word	0xf79ef79e
    126c:	f79ef79e 	.word	0xf79ef79e
    1270:	ff9eff9e 	.word	0xff9eff9e
    1274:	ff9eff9e 	.word	0xff9eff9e
    1278:	ff9eff9e 	.word	0xff9eff9e
    127c:	f79eff9e 	.word	0xf79eff9e
    1280:	f79eff9e 	.word	0xf79eff9e
    1284:	f79eff9e 	.word	0xf79eff9e
    1288:	f79ef79e 	.word	0xf79ef79e
    128c:	f79ef79e 	.word	0xf79ef79e
    1290:	f79ef79e 	.word	0xf79ef79e
    1294:	f79ef79e 	.word	0xf79ef79e
    1298:	f79ef79e 	.word	0xf79ef79e
    129c:	f79ef79e 	.word	0xf79ef79e
    12a0:	f79ef79e 	.word	0xf79ef79e
    12a4:	f79ef79e 	.word	0xf79ef79e
    12a8:	f79ef79e 	.word	0xf79ef79e
    12ac:	f79ef79e 	.word	0xf79ef79e
    12b0:	f79ef79e 	.word	0xf79ef79e
    12b4:	f79ef79e 	.word	0xf79ef79e
    12b8:	f79ef79e 	.word	0xf79ef79e
    12bc:	f79ef79e 	.word	0xf79ef79e
    12c0:	f79ef79e 	.word	0xf79ef79e
    12c4:	f79ef79e 	.word	0xf79ef79e
    12c8:	f79ef79e 	.word	0xf79ef79e
    12cc:	f79ef79e 	.word	0xf79ef79e
    12d0:	f79ef79e 	.word	0xf79ef79e
    12d4:	f79ef79e 	.word	0xf79ef79e
    12d8:	f79ef79e 	.word	0xf79ef79e
    12dc:	f79ef79e 	.word	0xf79ef79e
    12e0:	f79ef79e 	.word	0xf79ef79e
    12e4:	f79ef79e 	.word	0xf79ef79e
    12e8:	f79ef79e 	.word	0xf79ef79e
    12ec:	f79ef79e 	.word	0xf79ef79e
    12f0:	f79ef79e 	.word	0xf79ef79e
    12f4:	f79ef79e 	.word	0xf79ef79e
    12f8:	f79ef79e 	.word	0xf79ef79e
    12fc:	f79ef79e 	.word	0xf79ef79e
    1300:	f79ef79e 	.word	0xf79ef79e
    1304:	f79ef79e 	.word	0xf79ef79e
    1308:	f79ef79e 	.word	0xf79ef79e
    130c:	f79ef79e 	.word	0xf79ef79e
    1310:	f79ef79e 	.word	0xf79ef79e
    1314:	f79ef79e 	.word	0xf79ef79e
    1318:	f79ef79e 	.word	0xf79ef79e
    131c:	f79ef79e 	.word	0xf79ef79e
    1320:	f79ef79e 	.word	0xf79ef79e
    1324:	f79ef79e 	.word	0xf79ef79e
    1328:	f79ef79e 	.word	0xf79ef79e
    132c:	f79ef79e 	.word	0xf79ef79e
    1330:	f79ef79e 	.word	0xf79ef79e
    1334:	f79ef79e 	.word	0xf79ef79e
    1338:	f79ef79e 	.word	0xf79ef79e
    133c:	f79ef79e 	.word	0xf79ef79e
    1340:	f79ef79e 	.word	0xf79ef79e
    1344:	f79ef79e 	.word	0xf79ef79e
    1348:	f79ef79e 	.word	0xf79ef79e
    134c:	f79ef79e 	.word	0xf79ef79e
    1350:	f79ef79e 	.word	0xf79ef79e
    1354:	f79ef79e 	.word	0xf79ef79e
    1358:	f79ef79e 	.word	0xf79ef79e
    135c:	f79ef79e 	.word	0xf79ef79e
    1360:	f79ef79e 	.word	0xf79ef79e
    1364:	f79ef79e 	.word	0xf79ef79e
    1368:	f79ef79e 	.word	0xf79ef79e
    136c:	f79ef79e 	.word	0xf79ef79e
    1370:	f79ef79e 	.word	0xf79ef79e
    1374:	f79ef79e 	.word	0xf79ef79e
    1378:	f79ef79e 	.word	0xf79ef79e
    137c:	f79ef79e 	.word	0xf79ef79e
    1380:	f79ef79e 	.word	0xf79ef79e
    1384:	f79eff9e 	.word	0xf79eff9e
    1388:	ff9ef79e 	.word	0xff9ef79e
    138c:	ff9eff9e 	.word	0xff9eff9e
    1390:	d69affbe 	.word	0xd69affbe
    1394:	ff9edebb 	.word	0xff9edebb
    1398:	f79ef79e 	.word	0xf79ef79e
    139c:	f7bef79e 	.word	0xf7bef79e
    13a0:	f79ef79e 	.word	0xf79ef79e
    13a4:	f79ef79e 	.word	0xf79ef79e
    13a8:	f79ef79e 	.word	0xf79ef79e
    13ac:	f79ef79e 	.word	0xf79ef79e
    13b0:	ff9eff9e 	.word	0xff9eff9e
    13b4:	ff9eff9e 	.word	0xff9eff9e
    13b8:	f79ef79e 	.word	0xf79ef79e
    13bc:	f79ef79e 	.word	0xf79ef79e
    13c0:	f79ef79e 	.word	0xf79ef79e
    13c4:	f79ef79e 	.word	0xf79ef79e
    13c8:	f7bef79e 	.word	0xf7bef79e
    13cc:	ffbff7be 	.word	0xffbff7be
    13d0:	ffbfffbf 	.word	0xffbfffbf
    13d4:	ffbfffbf 	.word	0xffbfffbf
    13d8:	ffdfffdf 	.word	0xffdfffdf
    13dc:	ffbfffbf 	.word	0xffbfffbf
    13e0:	ffdfffdf 	.word	0xffdfffdf
    13e4:	ffdfffdf 	.word	0xffdfffdf
    13e8:	ffbeffbe 	.word	0xffbeffbe
    13ec:	ffbeffbe 	.word	0xffbeffbe
    13f0:	f7beffbe 	.word	0xf7beffbe
    13f4:	f79ef79e 	.word	0xf79ef79e
    13f8:	f79ef79e 	.word	0xf79ef79e
    13fc:	f7bef79e 	.word	0xf7bef79e
    1400:	f79ef79e 	.word	0xf79ef79e
    1404:	f79ef79e 	.word	0xf79ef79e
    1408:	f79ef79e 	.word	0xf79ef79e
    140c:	f79ef79e 	.word	0xf79ef79e
    1410:	f79ef79e 	.word	0xf79ef79e
    1414:	f79ef79e 	.word	0xf79ef79e
    1418:	f79ef79e 	.word	0xf79ef79e
    141c:	f79ef79e 	.word	0xf79ef79e
    1420:	f79ef79e 	.word	0xf79ef79e
    1424:	f79ef79e 	.word	0xf79ef79e
    1428:	f79ef79e 	.word	0xf79ef79e
    142c:	f79ef79e 	.word	0xf79ef79e
    1430:	f79ef79e 	.word	0xf79ef79e
    1434:	f79ef79e 	.word	0xf79ef79e
    1438:	f79ef79e 	.word	0xf79ef79e
    143c:	f79ef79e 	.word	0xf79ef79e
    1440:	f79ef79e 	.word	0xf79ef79e
    1444:	f79ef79e 	.word	0xf79ef79e
    1448:	f79ef79e 	.word	0xf79ef79e
    144c:	f79ef79e 	.word	0xf79ef79e
    1450:	f79ef79e 	.word	0xf79ef79e
    1454:	f79ef79e 	.word	0xf79ef79e
    1458:	f79ef79e 	.word	0xf79ef79e
    145c:	f79ef79e 	.word	0xf79ef79e
    1460:	f79ef79e 	.word	0xf79ef79e
    1464:	f79ef79e 	.word	0xf79ef79e
    1468:	f79ef79e 	.word	0xf79ef79e
    146c:	f79ef79e 	.word	0xf79ef79e
    1470:	f79ef79e 	.word	0xf79ef79e
    1474:	f79ef79e 	.word	0xf79ef79e
    1478:	f79ef79e 	.word	0xf79ef79e
    147c:	f79ef79e 	.word	0xf79ef79e
    1480:	f79ef79e 	.word	0xf79ef79e
    1484:	f79ef79e 	.word	0xf79ef79e
    1488:	f79ef79e 	.word	0xf79ef79e
    148c:	f79ef79e 	.word	0xf79ef79e
    1490:	f79ef79e 	.word	0xf79ef79e
    1494:	f79ef79e 	.word	0xf79ef79e
    1498:	f79ef79e 	.word	0xf79ef79e
    149c:	f79ef79e 	.word	0xf79ef79e
    14a0:	f79ef79e 	.word	0xf79ef79e
    14a4:	f79ef79e 	.word	0xf79ef79e
    14a8:	f79ef79e 	.word	0xf79ef79e
    14ac:	f79ef79e 	.word	0xf79ef79e
    14b0:	f79ef79e 	.word	0xf79ef79e
    14b4:	f79ef79e 	.word	0xf79ef79e
    14b8:	f79ef79e 	.word	0xf79ef79e
    14bc:	f79ef79e 	.word	0xf79ef79e
    14c0:	f79ef79e 	.word	0xf79ef79e
    14c4:	f79ef79e 	.word	0xf79ef79e
    14c8:	f79ef79e 	.word	0xf79ef79e
    14cc:	f79ef79e 	.word	0xf79ef79e
    14d0:	f79ef79e 	.word	0xf79ef79e
    14d4:	f79ef79e 	.word	0xf79ef79e
    14d8:	ff9eff9e 	.word	0xff9eff9e
    14dc:	ff9eff9e 	.word	0xff9eff9e
    14e0:	f79ef79e 	.word	0xf79ef79e
    14e4:	f79ef79e 	.word	0xf79ef79e
    14e8:	f79ef79e 	.word	0xf79ef79e
    14ec:	f79ef79e 	.word	0xf79ef79e
    14f0:	ff9eff9e 	.word	0xff9eff9e
    14f4:	f79ef79e 	.word	0xf79ef79e
    14f8:	f79ef79e 	.word	0xf79ef79e
    14fc:	f79ef79e 	.word	0xf79ef79e
    1500:	f79ef79e 	.word	0xf79ef79e
    1504:	f7bef79e 	.word	0xf7bef79e
    1508:	f7bef79e 	.word	0xf7bef79e
    150c:	f7bef79e 	.word	0xf7bef79e
    1510:	f7bef79e 	.word	0xf7bef79e
    1514:	ff9ef79e 	.word	0xff9ef79e
    1518:	ff9eff9e 	.word	0xff9eff9e
    151c:	ff9eff9e 	.word	0xff9eff9e
    1520:	ff9eff9e 	.word	0xff9eff9e
    1524:	f79eff9e 	.word	0xf79eff9e
    1528:	f79ef79e 	.word	0xf79ef79e
    152c:	f79ef79e 	.word	0xf79ef79e
    1530:	ff9eff9e 	.word	0xff9eff9e
    1534:	f79ef79e 	.word	0xf79ef79e
    1538:	f79ef79e 	.word	0xf79ef79e
    153c:	f79ef79e 	.word	0xf79ef79e
    1540:	f79ef79e 	.word	0xf79ef79e
    1544:	f79ef79e 	.word	0xf79ef79e
    1548:	f79ef79e 	.word	0xf79ef79e
    154c:	f79ef79e 	.word	0xf79ef79e
    1550:	f79ef79e 	.word	0xf79ef79e
    1554:	f79ef79e 	.word	0xf79ef79e
    1558:	f79ef79e 	.word	0xf79ef79e
    155c:	f79ef79e 	.word	0xf79ef79e
    1560:	f79ef79e 	.word	0xf79ef79e
    1564:	f79ef79e 	.word	0xf79ef79e
    1568:	f79ef79e 	.word	0xf79ef79e
    156c:	f79ef79e 	.word	0xf79ef79e
    1570:	f79ef79e 	.word	0xf79ef79e
    1574:	f79ef79e 	.word	0xf79ef79e
    1578:	f79ef79e 	.word	0xf79ef79e
    157c:	f79ef79e 	.word	0xf79ef79e
    1580:	f79ef79e 	.word	0xf79ef79e
    1584:	f79ef79e 	.word	0xf79ef79e
    1588:	f79ef79e 	.word	0xf79ef79e
    158c:	f79ef79e 	.word	0xf79ef79e
    1590:	f79ef79e 	.word	0xf79ef79e
    1594:	f79ef79e 	.word	0xf79ef79e
    1598:	f79ef79e 	.word	0xf79ef79e
    159c:	f79ef79e 	.word	0xf79ef79e
    15a0:	f79ef79e 	.word	0xf79ef79e
    15a4:	f79ef79e 	.word	0xf79ef79e
    15a8:	f79ef79e 	.word	0xf79ef79e
    15ac:	f79ef79e 	.word	0xf79ef79e
    15b0:	f79ef79e 	.word	0xf79ef79e
    15b4:	f79ef79e 	.word	0xf79ef79e
    15b8:	f79ef79e 	.word	0xf79ef79e
    15bc:	f79ef79e 	.word	0xf79ef79e
    15c0:	f79ef79e 	.word	0xf79ef79e
    15c4:	f79ef79e 	.word	0xf79ef79e
    15c8:	f79ef79e 	.word	0xf79ef79e
    15cc:	f79ef79e 	.word	0xf79ef79e
    15d0:	f79ef79e 	.word	0xf79ef79e
    15d4:	f79ef79e 	.word	0xf79ef79e
    15d8:	f79ef79e 	.word	0xf79ef79e
    15dc:	f79ef79e 	.word	0xf79ef79e
    15e0:	f79ef79e 	.word	0xf79ef79e
    15e4:	f79ef79e 	.word	0xf79ef79e
    15e8:	f79ef79e 	.word	0xf79ef79e
    15ec:	f79ef79e 	.word	0xf79ef79e
    15f0:	f79ef79e 	.word	0xf79ef79e
    15f4:	f79ef79e 	.word	0xf79ef79e
    15f8:	f79ef79e 	.word	0xf79ef79e
    15fc:	f79ef79e 	.word	0xf79ef79e
    1600:	f79ef79e 	.word	0xf79ef79e
    1604:	f79df7be 	.word	0xf79df7be
    1608:	f7bef79d 	.word	0xf7bef79d
    160c:	f79ef79e 	.word	0xf79ef79e
    1610:	b5b6ffde 	.word	0xb5b6ffde
    1614:	ffbedeba 	.word	0xffbedeba
    1618:	f79ef7be 	.word	0xf79ef7be
    161c:	f79ef79e 	.word	0xf79ef79e
    1620:	f79ef79e 	.word	0xf79ef79e
    1624:	f79ef79e 	.word	0xf79ef79e
    1628:	f79ef79e 	.word	0xf79ef79e
    162c:	f79ef79e 	.word	0xf79ef79e
    1630:	ff9eff9e 	.word	0xff9eff9e
    1634:	ff9eff9e 	.word	0xff9eff9e
    1638:	f79ef79e 	.word	0xf79ef79e
    163c:	f79ef79e 	.word	0xf79ef79e
    1640:	f79ef79e 	.word	0xf79ef79e
    1644:	f79ef79e 	.word	0xf79ef79e
    1648:	f7bef79e 	.word	0xf7bef79e
    164c:	ffbfffbf 	.word	0xffbfffbf
    1650:	f7beffbf 	.word	0xf7beffbf
    1654:	ffbfffbf 	.word	0xffbfffbf
    1658:	ffbfffbf 	.word	0xffbfffbf
    165c:	ffbfffbf 	.word	0xffbfffbf
    1660:	ffdfffbf 	.word	0xffdfffbf
    1664:	ffbeffdf 	.word	0xffbeffdf
    1668:	ffdfffbe 	.word	0xffdfffbe
    166c:	ffdfffdf 	.word	0xffdfffdf
    1670:	ffbeffbe 	.word	0xffbeffbe
    1674:	f79ef7be 	.word	0xf79ef7be
    1678:	f79ef79e 	.word	0xf79ef79e
    167c:	f79ef79e 	.word	0xf79ef79e
    1680:	f79ef79e 	.word	0xf79ef79e
    1684:	f79ef79e 	.word	0xf79ef79e
    1688:	f79ef79e 	.word	0xf79ef79e
    168c:	f79ef79e 	.word	0xf79ef79e
    1690:	f79ef79e 	.word	0xf79ef79e
    1694:	f79ef79e 	.word	0xf79ef79e
    1698:	f79ef79e 	.word	0xf79ef79e
    169c:	f79ef79e 	.word	0xf79ef79e
    16a0:	f79ef79e 	.word	0xf79ef79e
    16a4:	f79ef79e 	.word	0xf79ef79e
    16a8:	f79ef79e 	.word	0xf79ef79e
    16ac:	f79ef79e 	.word	0xf79ef79e
    16b0:	f79ef79e 	.word	0xf79ef79e
    16b4:	f79ef79e 	.word	0xf79ef79e
    16b8:	f79ef79e 	.word	0xf79ef79e
    16bc:	f79ef79e 	.word	0xf79ef79e
    16c0:	f79ef79e 	.word	0xf79ef79e
    16c4:	f79ef79e 	.word	0xf79ef79e
    16c8:	f79ef79e 	.word	0xf79ef79e
    16cc:	f79ef79e 	.word	0xf79ef79e
    16d0:	f79ef79e 	.word	0xf79ef79e
    16d4:	f79ef79e 	.word	0xf79ef79e
    16d8:	f79ef79e 	.word	0xf79ef79e
    16dc:	f79ef79e 	.word	0xf79ef79e
    16e0:	f79ef79e 	.word	0xf79ef79e
    16e4:	f79ef79e 	.word	0xf79ef79e
    16e8:	f79ef79e 	.word	0xf79ef79e
    16ec:	f79ef79e 	.word	0xf79ef79e
    16f0:	f79ef79e 	.word	0xf79ef79e
    16f4:	f79ef79e 	.word	0xf79ef79e
    16f8:	f79ef79e 	.word	0xf79ef79e
    16fc:	f79ef79e 	.word	0xf79ef79e
    1700:	f79ef79e 	.word	0xf79ef79e
    1704:	f79ef79e 	.word	0xf79ef79e
    1708:	f79ef79e 	.word	0xf79ef79e
    170c:	f79ef79e 	.word	0xf79ef79e
    1710:	f79ef79e 	.word	0xf79ef79e
    1714:	f79ef79e 	.word	0xf79ef79e
    1718:	f79ef79e 	.word	0xf79ef79e
    171c:	f79ef79e 	.word	0xf79ef79e
    1720:	f79ef79e 	.word	0xf79ef79e
    1724:	f79ef79e 	.word	0xf79ef79e
    1728:	f79ef79e 	.word	0xf79ef79e
    172c:	f79ef79e 	.word	0xf79ef79e
    1730:	f79ef79e 	.word	0xf79ef79e
    1734:	f79ef79e 	.word	0xf79ef79e
    1738:	f79ef79e 	.word	0xf79ef79e
    173c:	f79ef79e 	.word	0xf79ef79e
    1740:	f79ef79e 	.word	0xf79ef79e
    1744:	f79ef79e 	.word	0xf79ef79e
    1748:	f79ef79e 	.word	0xf79ef79e
    174c:	f79ef79e 	.word	0xf79ef79e
    1750:	f79ef79e 	.word	0xf79ef79e
    1754:	f79ef79e 	.word	0xf79ef79e
    1758:	ff9eff9e 	.word	0xff9eff9e
    175c:	ff9eff9e 	.word	0xff9eff9e
    1760:	f79ef79e 	.word	0xf79ef79e
    1764:	f79ef79e 	.word	0xf79ef79e
    1768:	f79ef79e 	.word	0xf79ef79e
    176c:	f79ef79e 	.word	0xf79ef79e
    1770:	f79eff9e 	.word	0xf79eff9e
    1774:	f79ef79e 	.word	0xf79ef79e
    1778:	f79ef79e 	.word	0xf79ef79e
    177c:	f79ef79e 	.word	0xf79ef79e
    1780:	f79ef79e 	.word	0xf79ef79e
    1784:	f7bef79e 	.word	0xf7bef79e
    1788:	f7bef7be 	.word	0xf7bef7be
    178c:	f7bef7be 	.word	0xf7bef7be
    1790:	f7bef7be 	.word	0xf7bef7be
    1794:	f79ef79e 	.word	0xf79ef79e
    1798:	f79eff9e 	.word	0xf79eff9e
    179c:	f79eff9e 	.word	0xf79eff9e
    17a0:	f79eff9e 	.word	0xf79eff9e
    17a4:	f7beff9e 	.word	0xf7beff9e
    17a8:	f79eff9e 	.word	0xf79eff9e
    17ac:	f79eff9e 	.word	0xf79eff9e
    17b0:	f7beff9e 	.word	0xf7beff9e
    17b4:	f79eff9e 	.word	0xf79eff9e
    17b8:	f79eff9e 	.word	0xf79eff9e
    17bc:	f79eff9e 	.word	0xf79eff9e
    17c0:	f79eff9e 	.word	0xf79eff9e
    17c4:	f79eff9e 	.word	0xf79eff9e
    17c8:	f79eff9e 	.word	0xf79eff9e
    17cc:	f79eff9e 	.word	0xf79eff9e
    17d0:	f79eff9e 	.word	0xf79eff9e
    17d4:	f79eff9e 	.word	0xf79eff9e
    17d8:	f79eff9e 	.word	0xf79eff9e
    17dc:	f79eff9e 	.word	0xf79eff9e
    17e0:	f79eff9e 	.word	0xf79eff9e
    17e4:	f79eff9e 	.word	0xf79eff9e
    17e8:	f79eff9e 	.word	0xf79eff9e
    17ec:	f79eff9e 	.word	0xf79eff9e
    17f0:	f79eff9e 	.word	0xf79eff9e
    17f4:	f7bef7be 	.word	0xf7bef7be
    17f8:	f7bef7be 	.word	0xf7bef7be
    17fc:	f7bef7be 	.word	0xf7bef7be
    1800:	f7bef7be 	.word	0xf7bef7be
    1804:	f7bef79e 	.word	0xf7bef79e
    1808:	f7bef79e 	.word	0xf7bef79e
    180c:	f7bef79e 	.word	0xf7bef79e
    1810:	f79ef79e 	.word	0xf79ef79e
    1814:	f7bef7be 	.word	0xf7bef7be
    1818:	f7bef7be 	.word	0xf7bef7be
    181c:	f7bef7be 	.word	0xf7bef7be
    1820:	f7bef7be 	.word	0xf7bef7be
    1824:	f79ef79e 	.word	0xf79ef79e
    1828:	f79ef79e 	.word	0xf79ef79e
    182c:	f79ef79e 	.word	0xf79ef79e
    1830:	f79ef79e 	.word	0xf79ef79e
    1834:	f79ef79e 	.word	0xf79ef79e
    1838:	f79eff9e 	.word	0xf79eff9e
    183c:	f79eff9e 	.word	0xf79eff9e
    1840:	f79eff9e 	.word	0xf79eff9e
    1844:	f79eff9e 	.word	0xf79eff9e
    1848:	f79eff9e 	.word	0xf79eff9e
    184c:	f79eff9e 	.word	0xf79eff9e
    1850:	f79eff9e 	.word	0xf79eff9e
    1854:	f79eff9e 	.word	0xf79eff9e
    1858:	f79eff9e 	.word	0xf79eff9e
    185c:	f79eff9e 	.word	0xf79eff9e
    1860:	f79eff9e 	.word	0xf79eff9e
    1864:	f79eff9e 	.word	0xf79eff9e
    1868:	f79eff9e 	.word	0xf79eff9e
    186c:	f79eff9e 	.word	0xf79eff9e
    1870:	f79eff9e 	.word	0xf79eff9e
    1874:	f7bef79e 	.word	0xf7bef79e
    1878:	f7bef7be 	.word	0xf7bef7be
    187c:	f7bef7be 	.word	0xf7bef7be
    1880:	f7bef79e 	.word	0xf7bef79e
    1884:	f79ef79e 	.word	0xf79ef79e
    1888:	f7bef7be 	.word	0xf7bef7be
    188c:	f79ef79e 	.word	0xf79ef79e
    1890:	ad75ffff 	.word	0xad75ffff
    1894:	ffbedeba 	.word	0xffbedeba
    1898:	f79ef79e 	.word	0xf79ef79e
    189c:	f79effbe 	.word	0xf79effbe
    18a0:	f79ef79e 	.word	0xf79ef79e
    18a4:	f79ef79e 	.word	0xf79ef79e
    18a8:	f79ef79e 	.word	0xf79ef79e
    18ac:	ff9eff9e 	.word	0xff9eff9e
    18b0:	ff9eff9e 	.word	0xff9eff9e
    18b4:	ff9eff9e 	.word	0xff9eff9e
    18b8:	ff9eff9e 	.word	0xff9eff9e
    18bc:	f79ef79e 	.word	0xf79ef79e
    18c0:	f79ef79e 	.word	0xf79ef79e
    18c4:	f79ef79e 	.word	0xf79ef79e
    18c8:	f7bff79e 	.word	0xf7bff79e
    18cc:	f7bff7bf 	.word	0xf7bff7bf
    18d0:	f7bff7bf 	.word	0xf7bff7bf
    18d4:	f7bff7bf 	.word	0xf7bff7bf
    18d8:	ffbfffbf 	.word	0xffbfffbf
    18dc:	ffbfffbf 	.word	0xffbfffbf
    18e0:	ffbfffbf 	.word	0xffbfffbf
    18e4:	ffbfffbf 	.word	0xffbfffbf
    18e8:	ffdfffdf 	.word	0xffdfffdf
    18ec:	ffdfffdf 	.word	0xffdfffdf
    18f0:	ffdfffdf 	.word	0xffdfffdf
    18f4:	ffbeffbe 	.word	0xffbeffbe
    18f8:	f79effbe 	.word	0xf79effbe
    18fc:	f79ef79e 	.word	0xf79ef79e
    1900:	f79ef79e 	.word	0xf79ef79e
    1904:	f79ef79e 	.word	0xf79ef79e
    1908:	f79ef79e 	.word	0xf79ef79e
    190c:	f79ef79e 	.word	0xf79ef79e
    1910:	f79ef79e 	.word	0xf79ef79e
    1914:	f79ef79e 	.word	0xf79ef79e
    1918:	f79ef79e 	.word	0xf79ef79e
    191c:	f79ef79e 	.word	0xf79ef79e
    1920:	f79ef79e 	.word	0xf79ef79e
    1924:	f79ef79e 	.word	0xf79ef79e
    1928:	f79ef79e 	.word	0xf79ef79e
    192c:	f79ef79e 	.word	0xf79ef79e
    1930:	f79ef79e 	.word	0xf79ef79e
    1934:	f79ef79e 	.word	0xf79ef79e
    1938:	f79ef79e 	.word	0xf79ef79e
    193c:	f79ef79e 	.word	0xf79ef79e
    1940:	f79ef79e 	.word	0xf79ef79e
    1944:	f79ef79e 	.word	0xf79ef79e
    1948:	f79ef79e 	.word	0xf79ef79e
    194c:	f79ef79e 	.word	0xf79ef79e
    1950:	f79ef79e 	.word	0xf79ef79e
    1954:	f79ef79e 	.word	0xf79ef79e
    1958:	f79ef79e 	.word	0xf79ef79e
    195c:	f79ef79e 	.word	0xf79ef79e
    1960:	f79ef79e 	.word	0xf79ef79e
    1964:	f79ef79e 	.word	0xf79ef79e
    1968:	f79ef79e 	.word	0xf79ef79e
    196c:	f79ef79e 	.word	0xf79ef79e
    1970:	f79ef79e 	.word	0xf79ef79e
    1974:	f79ef79e 	.word	0xf79ef79e
    1978:	f79ef79e 	.word	0xf79ef79e
    197c:	f79ef79e 	.word	0xf79ef79e
    1980:	f79ef79e 	.word	0xf79ef79e
    1984:	f79ef79e 	.word	0xf79ef79e
    1988:	f79ef79e 	.word	0xf79ef79e
    198c:	f79ef79e 	.word	0xf79ef79e
    1990:	f79ef79e 	.word	0xf79ef79e
    1994:	f79ef79e 	.word	0xf79ef79e
    1998:	f79ef79e 	.word	0xf79ef79e
    199c:	f79ef79e 	.word	0xf79ef79e
    19a0:	f79ef79e 	.word	0xf79ef79e
    19a4:	f79ef79e 	.word	0xf79ef79e
    19a8:	f79ef79e 	.word	0xf79ef79e
    19ac:	f79ef79e 	.word	0xf79ef79e
    19b0:	f79ef79e 	.word	0xf79ef79e
    19b4:	f79ef79e 	.word	0xf79ef79e
    19b8:	f79ef79e 	.word	0xf79ef79e
    19bc:	f79ef79e 	.word	0xf79ef79e
    19c0:	f79ef79e 	.word	0xf79ef79e
    19c4:	f79ef79e 	.word	0xf79ef79e
    19c8:	f79ef79e 	.word	0xf79ef79e
    19cc:	f79ef79e 	.word	0xf79ef79e
    19d0:	f79ef79e 	.word	0xf79ef79e
    19d4:	f79ef79e 	.word	0xf79ef79e
    19d8:	f79ef79e 	.word	0xf79ef79e
    19dc:	f79ef79e 	.word	0xf79ef79e
    19e0:	f79ef79e 	.word	0xf79ef79e
    19e4:	ff9eff9e 	.word	0xff9eff9e
    19e8:	ff9eff9e 	.word	0xff9eff9e
    19ec:	ff9eff9e 	.word	0xff9eff9e
    19f0:	f79ef79e 	.word	0xf79ef79e
    19f4:	f79ef79e 	.word	0xf79ef79e
    19f8:	f79ef79e 	.word	0xf79ef79e
    19fc:	f79ef79e 	.word	0xf79ef79e
    1a00:	f79ef79e 	.word	0xf79ef79e
    1a04:	f7bef7be 	.word	0xf7bef7be
    1a08:	f7bef7be 	.word	0xf7bef7be
    1a0c:	f7bef7be 	.word	0xf7bef7be
    1a10:	f7bef7be 	.word	0xf7bef7be
    1a14:	f7bef7be 	.word	0xf7bef7be
    1a18:	f7bef7be 	.word	0xf7bef7be
    1a1c:	f7bef7be 	.word	0xf7bef7be
    1a20:	f7bef7be 	.word	0xf7bef7be
    1a24:	f7bef7be 	.word	0xf7bef7be
    1a28:	f79ef7be 	.word	0xf79ef7be
    1a2c:	f79ef79e 	.word	0xf79ef79e
    1a30:	f79ef79e 	.word	0xf79ef79e
    1a34:	f79ef79e 	.word	0xf79ef79e
    1a38:	f79ef79e 	.word	0xf79ef79e
    1a3c:	f79ef79e 	.word	0xf79ef79e
    1a40:	f79ef79e 	.word	0xf79ef79e
    1a44:	f79ef79e 	.word	0xf79ef79e
    1a48:	f79ef79e 	.word	0xf79ef79e
    1a4c:	f79ef79e 	.word	0xf79ef79e
    1a50:	f79ef79e 	.word	0xf79ef79e
    1a54:	f79ef79e 	.word	0xf79ef79e
    1a58:	f79ef79e 	.word	0xf79ef79e
    1a5c:	f79ef79e 	.word	0xf79ef79e
    1a60:	f79ef79e 	.word	0xf79ef79e
    1a64:	f79ef79e 	.word	0xf79ef79e
    1a68:	f79ef79e 	.word	0xf79ef79e
    1a6c:	f79ef79e 	.word	0xf79ef79e
    1a70:	f79ef79e 	.word	0xf79ef79e
    1a74:	f79ef79e 	.word	0xf79ef79e
    1a78:	f79ef79e 	.word	0xf79ef79e
    1a7c:	f79ef79e 	.word	0xf79ef79e
    1a80:	f79ef79e 	.word	0xf79ef79e
    1a84:	f79ef79e 	.word	0xf79ef79e
    1a88:	f79ef79e 	.word	0xf79ef79e
    1a8c:	f79ef79e 	.word	0xf79ef79e
    1a90:	f79ef79e 	.word	0xf79ef79e
    1a94:	f79ef79e 	.word	0xf79ef79e
    1a98:	f79ef79e 	.word	0xf79ef79e
    1a9c:	f79ef79e 	.word	0xf79ef79e
    1aa0:	f79ef79e 	.word	0xf79ef79e
    1aa4:	f79ef79e 	.word	0xf79ef79e
    1aa8:	f79ef79e 	.word	0xf79ef79e
    1aac:	f79ef79e 	.word	0xf79ef79e
    1ab0:	f79ef79e 	.word	0xf79ef79e
    1ab4:	f79ef79e 	.word	0xf79ef79e
    1ab8:	f79ef79e 	.word	0xf79ef79e
    1abc:	f79ef79e 	.word	0xf79ef79e
    1ac0:	f79ef79e 	.word	0xf79ef79e
    1ac4:	f79ef79e 	.word	0xf79ef79e
    1ac8:	f79ef79e 	.word	0xf79ef79e
    1acc:	f79ef79e 	.word	0xf79ef79e
    1ad0:	f79ef79e 	.word	0xf79ef79e
    1ad4:	f79ef79e 	.word	0xf79ef79e
    1ad8:	f79ef79e 	.word	0xf79ef79e
    1adc:	f79ef79e 	.word	0xf79ef79e
    1ae0:	f79ef79e 	.word	0xf79ef79e
    1ae4:	f79ef79e 	.word	0xf79ef79e
    1ae8:	f79ef79e 	.word	0xf79ef79e
    1aec:	f79ef79e 	.word	0xf79ef79e
    1af0:	f79ef79e 	.word	0xf79ef79e
    1af4:	f79ef79e 	.word	0xf79ef79e
    1af8:	f79ef79e 	.word	0xf79ef79e
    1afc:	f79ef79e 	.word	0xf79ef79e
    1b00:	f79ef79e 	.word	0xf79ef79e
    1b04:	f79ef79e 	.word	0xf79ef79e
    1b08:	f79effbf 	.word	0xf79effbf
    1b0c:	f79ef79e 	.word	0xf79ef79e
    1b10:	ad75ffff 	.word	0xad75ffff
    1b14:	ffbedeba 	.word	0xffbedeba
    1b18:	f79ef79e 	.word	0xf79ef79e
    1b1c:	f79effbe 	.word	0xf79effbe
    1b20:	f7bef79e 	.word	0xf7bef79e
    1b24:	f79ef79e 	.word	0xf79ef79e
    1b28:	f79ef79e 	.word	0xf79ef79e
    1b2c:	ff9eff9e 	.word	0xff9eff9e
    1b30:	ff9eff9e 	.word	0xff9eff9e
    1b34:	ff9eff9e 	.word	0xff9eff9e
    1b38:	ff9eff9e 	.word	0xff9eff9e
    1b3c:	f79ef79e 	.word	0xf79ef79e
    1b40:	f79ef79e 	.word	0xf79ef79e
    1b44:	f79ef79e 	.word	0xf79ef79e
    1b48:	f7bff79f 	.word	0xf7bff79f
    1b4c:	f7bff7bf 	.word	0xf7bff7bf
    1b50:	f7bff7bf 	.word	0xf7bff7bf
    1b54:	f7bff7bf 	.word	0xf7bff7bf
    1b58:	ffbff7bf 	.word	0xffbff7bf
    1b5c:	ffbfffbf 	.word	0xffbfffbf
    1b60:	ffbfffbf 	.word	0xffbfffbf
    1b64:	ffbfffbf 	.word	0xffbfffbf
    1b68:	ffdfffdf 	.word	0xffdfffdf
    1b6c:	ffdfffdf 	.word	0xffdfffdf
    1b70:	ffdfffdf 	.word	0xffdfffdf
    1b74:	ffdfffdf 	.word	0xffdfffdf
    1b78:	ffbeffbe 	.word	0xffbeffbe
    1b7c:	f79ef79e 	.word	0xf79ef79e
    1b80:	f79ef79e 	.word	0xf79ef79e
    1b84:	f79ef79e 	.word	0xf79ef79e
    1b88:	f79ef79e 	.word	0xf79ef79e
    1b8c:	f79ef79e 	.word	0xf79ef79e
    1b90:	f79ef79e 	.word	0xf79ef79e
    1b94:	f79ef79e 	.word	0xf79ef79e
    1b98:	f79ef79e 	.word	0xf79ef79e
    1b9c:	f79ef79e 	.word	0xf79ef79e
    1ba0:	f79ef79e 	.word	0xf79ef79e
    1ba4:	f79ef79e 	.word	0xf79ef79e
    1ba8:	f79ef79e 	.word	0xf79ef79e
    1bac:	f79ef79e 	.word	0xf79ef79e
    1bb0:	f79ef79e 	.word	0xf79ef79e
    1bb4:	f79ef79e 	.word	0xf79ef79e
    1bb8:	f79ef79e 	.word	0xf79ef79e
    1bbc:	f79ef79e 	.word	0xf79ef79e
    1bc0:	f79ef79e 	.word	0xf79ef79e
    1bc4:	f79ef79e 	.word	0xf79ef79e
    1bc8:	f79ef79e 	.word	0xf79ef79e
    1bcc:	f79ef79e 	.word	0xf79ef79e
    1bd0:	f79ef79e 	.word	0xf79ef79e
    1bd4:	f79ef79e 	.word	0xf79ef79e
    1bd8:	f79ef79e 	.word	0xf79ef79e
    1bdc:	f79ef79e 	.word	0xf79ef79e
    1be0:	f79ef79e 	.word	0xf79ef79e
    1be4:	f79ef79e 	.word	0xf79ef79e
    1be8:	f79ef79e 	.word	0xf79ef79e
    1bec:	f79ef79e 	.word	0xf79ef79e
    1bf0:	f79ef79e 	.word	0xf79ef79e
    1bf4:	f79ef79e 	.word	0xf79ef79e
    1bf8:	f79ef79e 	.word	0xf79ef79e
    1bfc:	f79ef79e 	.word	0xf79ef79e
    1c00:	f79ef79e 	.word	0xf79ef79e
    1c04:	f79ef79e 	.word	0xf79ef79e
    1c08:	f79ef79e 	.word	0xf79ef79e
    1c0c:	f79ef79e 	.word	0xf79ef79e
    1c10:	f79ef79e 	.word	0xf79ef79e
    1c14:	f79ef79e 	.word	0xf79ef79e
    1c18:	f79ef79e 	.word	0xf79ef79e
    1c1c:	f79ef79e 	.word	0xf79ef79e
    1c20:	f79ef79e 	.word	0xf79ef79e
    1c24:	f79ef79e 	.word	0xf79ef79e
    1c28:	f79ef79e 	.word	0xf79ef79e
    1c2c:	f79ef79e 	.word	0xf79ef79e
    1c30:	f79ef79e 	.word	0xf79ef79e
    1c34:	f79ef79e 	.word	0xf79ef79e
    1c38:	f79ef79e 	.word	0xf79ef79e
    1c3c:	f79ef79e 	.word	0xf79ef79e
    1c40:	f79ef79e 	.word	0xf79ef79e
    1c44:	f79ef79e 	.word	0xf79ef79e
    1c48:	f79ef79e 	.word	0xf79ef79e
    1c4c:	f79ef79e 	.word	0xf79ef79e
    1c50:	f79ef79e 	.word	0xf79ef79e
    1c54:	f79ef79e 	.word	0xf79ef79e
    1c58:	f79ef79e 	.word	0xf79ef79e
    1c5c:	f79ef79e 	.word	0xf79ef79e
    1c60:	f79ef79e 	.word	0xf79ef79e
    1c64:	f79ef79e 	.word	0xf79ef79e
    1c68:	ff9eff9e 	.word	0xff9eff9e
    1c6c:	f79eff9e 	.word	0xf79eff9e
    1c70:	f79ef79e 	.word	0xf79ef79e
    1c74:	f79ef79e 	.word	0xf79ef79e
    1c78:	f79eff9e 	.word	0xf79eff9e
    1c7c:	f79eff9e 	.word	0xf79eff9e
    1c80:	f79eff9e 	.word	0xf79eff9e
    1c84:	f7bef79e 	.word	0xf7bef79e
    1c88:	f7bef79e 	.word	0xf7bef79e
    1c8c:	f7bef79e 	.word	0xf7bef79e
    1c90:	f7bef79e 	.word	0xf7bef79e
    1c94:	f79ef79e 	.word	0xf79ef79e
    1c98:	f79ef79e 	.word	0xf79ef79e
    1c9c:	f79ef79e 	.word	0xf79ef79e
    1ca0:	f79ef79e 	.word	0xf79ef79e
    1ca4:	f79ef79e 	.word	0xf79ef79e
    1ca8:	f79ef79e 	.word	0xf79ef79e
    1cac:	f79ef79e 	.word	0xf79ef79e
    1cb0:	f79ef79e 	.word	0xf79ef79e
    1cb4:	f79ef79e 	.word	0xf79ef79e
    1cb8:	f79ef79e 	.word	0xf79ef79e
    1cbc:	f79ef79e 	.word	0xf79ef79e
    1cc0:	f79ef79e 	.word	0xf79ef79e
    1cc4:	f79ef79e 	.word	0xf79ef79e
    1cc8:	f79ef79e 	.word	0xf79ef79e
    1ccc:	f79ef79e 	.word	0xf79ef79e
    1cd0:	f79ef79e 	.word	0xf79ef79e
    1cd4:	f79ef79e 	.word	0xf79ef79e
    1cd8:	f79ef79e 	.word	0xf79ef79e
    1cdc:	f79ef79e 	.word	0xf79ef79e
    1ce0:	f79ef79e 	.word	0xf79ef79e
    1ce4:	f79ef79e 	.word	0xf79ef79e
    1ce8:	f79ef79e 	.word	0xf79ef79e
    1cec:	f79ef79e 	.word	0xf79ef79e
    1cf0:	f79ef79e 	.word	0xf79ef79e
    1cf4:	f79ef79e 	.word	0xf79ef79e
    1cf8:	f79ef79e 	.word	0xf79ef79e
    1cfc:	f79ef79e 	.word	0xf79ef79e
    1d00:	f79ef79e 	.word	0xf79ef79e
    1d04:	f79ef79e 	.word	0xf79ef79e
    1d08:	f79ef79e 	.word	0xf79ef79e
    1d0c:	f79ef79e 	.word	0xf79ef79e
    1d10:	f79ef79e 	.word	0xf79ef79e
    1d14:	f79ef79e 	.word	0xf79ef79e
    1d18:	f79ef79e 	.word	0xf79ef79e
    1d1c:	f79ef79e 	.word	0xf79ef79e
    1d20:	f79ef79e 	.word	0xf79ef79e
    1d24:	f79ef79e 	.word	0xf79ef79e
    1d28:	f79ef79e 	.word	0xf79ef79e
    1d2c:	f79ef79e 	.word	0xf79ef79e
    1d30:	f79ef79e 	.word	0xf79ef79e
    1d34:	f79ef79e 	.word	0xf79ef79e
    1d38:	f79ef79e 	.word	0xf79ef79e
    1d3c:	f79ef79e 	.word	0xf79ef79e
    1d40:	f79ef79e 	.word	0xf79ef79e
    1d44:	f79ef79e 	.word	0xf79ef79e
    1d48:	f79ef79e 	.word	0xf79ef79e
    1d4c:	f79ef79e 	.word	0xf79ef79e
    1d50:	f79ef79e 	.word	0xf79ef79e
    1d54:	f79ef79e 	.word	0xf79ef79e
    1d58:	f79ef79e 	.word	0xf79ef79e
    1d5c:	f79ef79e 	.word	0xf79ef79e
    1d60:	f79ef79e 	.word	0xf79ef79e
    1d64:	f79ef79e 	.word	0xf79ef79e
    1d68:	f79ef79e 	.word	0xf79ef79e
    1d6c:	f79ef79e 	.word	0xf79ef79e
    1d70:	f79ef79e 	.word	0xf79ef79e
    1d74:	f79ef79e 	.word	0xf79ef79e
    1d78:	f79ef79e 	.word	0xf79ef79e
    1d7c:	f79ef79e 	.word	0xf79ef79e
    1d80:	f79ef79e 	.word	0xf79ef79e
    1d84:	f79ef79e 	.word	0xf79ef79e
    1d88:	f79effbe 	.word	0xf79effbe
    1d8c:	f7bef79e 	.word	0xf7bef79e
    1d90:	ad75ffbf 	.word	0xad75ffbf
    1d94:	ffbedeba 	.word	0xffbedeba
    1d98:	f79ef79e 	.word	0xf79ef79e
    1d9c:	f79ef7be 	.word	0xf79ef7be
    1da0:	f79ef7be 	.word	0xf79ef7be
    1da4:	f79ef79e 	.word	0xf79ef79e
    1da8:	ff9eff9e 	.word	0xff9eff9e
    1dac:	ff9eff9e 	.word	0xff9eff9e
    1db0:	ff9eff9e 	.word	0xff9eff9e
    1db4:	f79ef79e 	.word	0xf79ef79e
    1db8:	f79ef79e 	.word	0xf79ef79e
    1dbc:	f79ef79e 	.word	0xf79ef79e
    1dc0:	f79ff79e 	.word	0xf79ff79e
    1dc4:	f79ff79f 	.word	0xf79ff79f
    1dc8:	f7bff79f 	.word	0xf7bff79f
    1dcc:	f7bff7bf 	.word	0xf7bff7bf
    1dd0:	f7bff7bf 	.word	0xf7bff7bf
    1dd4:	f7bff7bf 	.word	0xf7bff7bf
    1dd8:	f7bff7bf 	.word	0xf7bff7bf
    1ddc:	ffbff7bf 	.word	0xffbff7bf
    1de0:	ffbfffbf 	.word	0xffbfffbf
    1de4:	ffbfffbf 	.word	0xffbfffbf
    1de8:	ffdfffbf 	.word	0xffdfffbf
    1dec:	ffdfffdf 	.word	0xffdfffdf
    1df0:	ffdfffdf 	.word	0xffdfffdf
    1df4:	ffbfffbf 	.word	0xffbfffbf
    1df8:	ffbfffbf 	.word	0xffbfffbf
    1dfc:	f7beffbe 	.word	0xf7beffbe
    1e00:	f79ef79e 	.word	0xf79ef79e
    1e04:	f79ef79e 	.word	0xf79ef79e
    1e08:	f79ef79e 	.word	0xf79ef79e
    1e0c:	f79ef79e 	.word	0xf79ef79e
    1e10:	f79ef79e 	.word	0xf79ef79e
    1e14:	f79ef79e 	.word	0xf79ef79e
    1e18:	f79ef79e 	.word	0xf79ef79e
    1e1c:	f79ef79e 	.word	0xf79ef79e
    1e20:	f79ef79e 	.word	0xf79ef79e
    1e24:	f79ef79e 	.word	0xf79ef79e
    1e28:	f79ef79e 	.word	0xf79ef79e
    1e2c:	f79ef79e 	.word	0xf79ef79e
    1e30:	f79ef79e 	.word	0xf79ef79e
    1e34:	f79ef79e 	.word	0xf79ef79e
    1e38:	f79ef79e 	.word	0xf79ef79e
    1e3c:	f79ef79e 	.word	0xf79ef79e
    1e40:	f79ef79e 	.word	0xf79ef79e
    1e44:	f79ef79e 	.word	0xf79ef79e
    1e48:	f79ef79e 	.word	0xf79ef79e
    1e4c:	f79ef79e 	.word	0xf79ef79e
    1e50:	f79ef79e 	.word	0xf79ef79e
    1e54:	f79ef79e 	.word	0xf79ef79e
    1e58:	f79ef79e 	.word	0xf79ef79e
    1e5c:	f79ef79e 	.word	0xf79ef79e
    1e60:	f79ef79e 	.word	0xf79ef79e
    1e64:	f79ef79e 	.word	0xf79ef79e
    1e68:	f79ef79e 	.word	0xf79ef79e
    1e6c:	f79ef79e 	.word	0xf79ef79e
    1e70:	f79ef79e 	.word	0xf79ef79e
    1e74:	f79ef79e 	.word	0xf79ef79e
    1e78:	f79ef79e 	.word	0xf79ef79e
    1e7c:	f79ef79e 	.word	0xf79ef79e
    1e80:	f79ef79e 	.word	0xf79ef79e
    1e84:	f79ef79e 	.word	0xf79ef79e
    1e88:	f79ef79e 	.word	0xf79ef79e
    1e8c:	f79ef79e 	.word	0xf79ef79e
    1e90:	f79ef79e 	.word	0xf79ef79e
    1e94:	f79ef79e 	.word	0xf79ef79e
    1e98:	f79ef79e 	.word	0xf79ef79e
    1e9c:	f79ef79e 	.word	0xf79ef79e
    1ea0:	f79ef79e 	.word	0xf79ef79e
    1ea4:	f79ef79e 	.word	0xf79ef79e
    1ea8:	f79ef79e 	.word	0xf79ef79e
    1eac:	f79ef79e 	.word	0xf79ef79e
    1eb0:	f79ef79e 	.word	0xf79ef79e
    1eb4:	f79ef79e 	.word	0xf79ef79e
    1eb8:	f79ef79e 	.word	0xf79ef79e
    1ebc:	f79ef79e 	.word	0xf79ef79e
    1ec0:	f79ef79e 	.word	0xf79ef79e
    1ec4:	f79ef79e 	.word	0xf79ef79e
    1ec8:	f79ef79e 	.word	0xf79ef79e
    1ecc:	f79ef79e 	.word	0xf79ef79e
    1ed0:	f79ef79e 	.word	0xf79ef79e
    1ed4:	f7bef7be 	.word	0xf7bef7be
    1ed8:	f79ef79e 	.word	0xf79ef79e
    1edc:	f79ef79e 	.word	0xf79ef79e
    1ee0:	f79ef79e 	.word	0xf79ef79e
    1ee4:	f79ef79e 	.word	0xf79ef79e
    1ee8:	ff9ef79e 	.word	0xff9ef79e
    1eec:	f7bef79e 	.word	0xf7bef79e
    1ef0:	f7bef7be 	.word	0xf7bef7be
    1ef4:	ff9eff9e 	.word	0xff9eff9e
    1ef8:	ff9eff9e 	.word	0xff9eff9e
    1efc:	ff9eff9e 	.word	0xff9eff9e
    1f00:	ff9eff9e 	.word	0xff9eff9e
    1f04:	f7beff9e 	.word	0xf7beff9e
    1f08:	f7beff9e 	.word	0xf7beff9e
    1f0c:	f7beff9e 	.word	0xf7beff9e
    1f10:	f7beff9e 	.word	0xf7beff9e
    1f14:	f79ef79e 	.word	0xf79ef79e
    1f18:	f79ef79e 	.word	0xf79ef79e
    1f1c:	f79ef79e 	.word	0xf79ef79e
    1f20:	f79ef79e 	.word	0xf79ef79e
    1f24:	f79ef79e 	.word	0xf79ef79e
    1f28:	f79ef79e 	.word	0xf79ef79e
    1f2c:	f79ef79e 	.word	0xf79ef79e
    1f30:	f79ef79e 	.word	0xf79ef79e
    1f34:	f79ef79e 	.word	0xf79ef79e
    1f38:	f79ef79e 	.word	0xf79ef79e
    1f3c:	f79ef79e 	.word	0xf79ef79e
    1f40:	f79ef79e 	.word	0xf79ef79e
    1f44:	f79ef79e 	.word	0xf79ef79e
    1f48:	f79ef79e 	.word	0xf79ef79e
    1f4c:	f79ef79e 	.word	0xf79ef79e
    1f50:	f79ef79e 	.word	0xf79ef79e
    1f54:	f79ef79e 	.word	0xf79ef79e
    1f58:	f79ef79e 	.word	0xf79ef79e
    1f5c:	f79ef79e 	.word	0xf79ef79e
    1f60:	f79ef79e 	.word	0xf79ef79e
    1f64:	f79ef79e 	.word	0xf79ef79e
    1f68:	f79ef79e 	.word	0xf79ef79e
    1f6c:	f79ef79e 	.word	0xf79ef79e
    1f70:	f79ef79e 	.word	0xf79ef79e
    1f74:	f79ef79e 	.word	0xf79ef79e
    1f78:	f79ef79e 	.word	0xf79ef79e
    1f7c:	f79ef79e 	.word	0xf79ef79e
    1f80:	f79ef79e 	.word	0xf79ef79e
    1f84:	f79ef79e 	.word	0xf79ef79e
    1f88:	f79ef79e 	.word	0xf79ef79e
    1f8c:	f79ef79e 	.word	0xf79ef79e
    1f90:	f79ef79e 	.word	0xf79ef79e
    1f94:	f79ef79e 	.word	0xf79ef79e
    1f98:	f79ef79e 	.word	0xf79ef79e
    1f9c:	f79df79e 	.word	0xf79df79e
    1fa0:	f79df79e 	.word	0xf79df79e
    1fa4:	f79df79e 	.word	0xf79df79e
    1fa8:	f79ef79e 	.word	0xf79ef79e
    1fac:	f79ef79e 	.word	0xf79ef79e
    1fb0:	f79ef79e 	.word	0xf79ef79e
    1fb4:	f79ef79e 	.word	0xf79ef79e
    1fb8:	f79ef79e 	.word	0xf79ef79e
    1fbc:	f79ef79e 	.word	0xf79ef79e
    1fc0:	f79ef79e 	.word	0xf79ef79e
    1fc4:	f79ef79e 	.word	0xf79ef79e
    1fc8:	f79ef79e 	.word	0xf79ef79e
    1fcc:	f79ef79e 	.word	0xf79ef79e
    1fd0:	f79ef79e 	.word	0xf79ef79e
    1fd4:	f79ef79e 	.word	0xf79ef79e
    1fd8:	f79ef79e 	.word	0xf79ef79e
    1fdc:	f79ef79e 	.word	0xf79ef79e
    1fe0:	f79ef79e 	.word	0xf79ef79e
    1fe4:	f79ef79e 	.word	0xf79ef79e
    1fe8:	f79ef79e 	.word	0xf79ef79e
    1fec:	f79ef79e 	.word	0xf79ef79e
    1ff0:	f79ef79e 	.word	0xf79ef79e
    1ff4:	f79ef79e 	.word	0xf79ef79e
    1ff8:	f79eff9e 	.word	0xf79eff9e
    1ffc:	f79ef79e 	.word	0xf79ef79e
    2000:	f79ef79e 	.word	0xf79ef79e
    2004:	f79ef79e 	.word	0xf79ef79e
    2008:	f79ef79e 	.word	0xf79ef79e
    200c:	f7beff9e 	.word	0xf7beff9e
    2010:	ad75ffdf 	.word	0xad75ffdf
    2014:	ffbed6ba 	.word	0xffbed6ba
    2018:	f79ef79e 	.word	0xf79ef79e
    201c:	f79ef79e 	.word	0xf79ef79e
    2020:	f79dffbe 	.word	0xf79dffbe
    2024:	f79ef79e 	.word	0xf79ef79e
    2028:	ff9eff9e 	.word	0xff9eff9e
    202c:	ff9eff9e 	.word	0xff9eff9e
    2030:	f79eff9e 	.word	0xf79eff9e
    2034:	f79ef79e 	.word	0xf79ef79e
    2038:	f79ef79e 	.word	0xf79ef79e
    203c:	f79ef79e 	.word	0xf79ef79e
    2040:	f79ff79f 	.word	0xf79ff79f
    2044:	f79ff79f 	.word	0xf79ff79f
    2048:	f79ff79f 	.word	0xf79ff79f
    204c:	f79ff79f 	.word	0xf79ff79f
    2050:	f7bff7bf 	.word	0xf7bff7bf
    2054:	f7bff7bf 	.word	0xf7bff7bf
    2058:	f7bff7bf 	.word	0xf7bff7bf
    205c:	f7bff7bf 	.word	0xf7bff7bf
    2060:	ffbfffbf 	.word	0xffbfffbf
    2064:	ffbfffbf 	.word	0xffbfffbf
    2068:	ffbfffbf 	.word	0xffbfffbf
    206c:	ffdfffdf 	.word	0xffdfffdf
    2070:	ffbeffbe 	.word	0xffbeffbe
    2074:	ffbfffbf 	.word	0xffbfffbf
    2078:	ffbfffbf 	.word	0xffbfffbf
    207c:	ffbeffdf 	.word	0xffbeffdf
    2080:	f79ef7be 	.word	0xf79ef7be
    2084:	f79ef79e 	.word	0xf79ef79e
    2088:	f79ef79e 	.word	0xf79ef79e
    208c:	f79ef79e 	.word	0xf79ef79e
    2090:	f79ef79e 	.word	0xf79ef79e
    2094:	f79ef79e 	.word	0xf79ef79e
    2098:	f79ef79e 	.word	0xf79ef79e
    209c:	f79ef79e 	.word	0xf79ef79e
    20a0:	f79ef79e 	.word	0xf79ef79e
    20a4:	f79ef79e 	.word	0xf79ef79e
    20a8:	f79ef79e 	.word	0xf79ef79e
    20ac:	f79ef79e 	.word	0xf79ef79e
    20b0:	f79ef79e 	.word	0xf79ef79e
    20b4:	f79ef79e 	.word	0xf79ef79e
    20b8:	f79ef79e 	.word	0xf79ef79e
    20bc:	f79ef79e 	.word	0xf79ef79e
    20c0:	f79ef79e 	.word	0xf79ef79e
    20c4:	f79ef79e 	.word	0xf79ef79e
    20c8:	f79ef79e 	.word	0xf79ef79e
    20cc:	f79ef79e 	.word	0xf79ef79e
    20d0:	f79ef79e 	.word	0xf79ef79e
    20d4:	f79ef79e 	.word	0xf79ef79e
    20d8:	f79ef79e 	.word	0xf79ef79e
    20dc:	f79ef79e 	.word	0xf79ef79e
    20e0:	f79ef79e 	.word	0xf79ef79e
    20e4:	f79ef79e 	.word	0xf79ef79e
    20e8:	f79ef79e 	.word	0xf79ef79e
    20ec:	f79ef79e 	.word	0xf79ef79e
    20f0:	f79ef79e 	.word	0xf79ef79e
    20f4:	f79ef79e 	.word	0xf79ef79e
    20f8:	f79ef79e 	.word	0xf79ef79e
    20fc:	f79ef79e 	.word	0xf79ef79e
    2100:	f79ef79e 	.word	0xf79ef79e
    2104:	f79ef79e 	.word	0xf79ef79e
    2108:	f79ef79e 	.word	0xf79ef79e
    210c:	f79ef79e 	.word	0xf79ef79e
    2110:	f79ef79e 	.word	0xf79ef79e
    2114:	f79ef79e 	.word	0xf79ef79e
    2118:	f79ef79e 	.word	0xf79ef79e
    211c:	f79ef79e 	.word	0xf79ef79e
    2120:	f79ef79e 	.word	0xf79ef79e
    2124:	f79ef79e 	.word	0xf79ef79e
    2128:	f79ef79e 	.word	0xf79ef79e
    212c:	f79ef79e 	.word	0xf79ef79e
    2130:	f79ef79e 	.word	0xf79ef79e
    2134:	f79ef79e 	.word	0xf79ef79e
    2138:	f79ef79e 	.word	0xf79ef79e
    213c:	f79ef79e 	.word	0xf79ef79e
    2140:	f79ef79e 	.word	0xf79ef79e
    2144:	f79ef79e 	.word	0xf79ef79e
    2148:	f79ef79e 	.word	0xf79ef79e
    214c:	f79ef79e 	.word	0xf79ef79e
    2150:	f79ef79e 	.word	0xf79ef79e
    2154:	f7bef7be 	.word	0xf7bef7be
    2158:	f79ef79e 	.word	0xf79ef79e
    215c:	f79ef79e 	.word	0xf79ef79e
    2160:	f79ef79e 	.word	0xf79ef79e
    2164:	f79ef79e 	.word	0xf79ef79e
    2168:	ff9ef79e 	.word	0xff9ef79e
    216c:	f7bef79e 	.word	0xf7bef79e
    2170:	f7bef7be 	.word	0xf7bef7be
    2174:	ff9ef7be 	.word	0xff9ef7be
    2178:	ff9eff9e 	.word	0xff9eff9e
    217c:	ff9eff9e 	.word	0xff9eff9e
    2180:	ff9eff9e 	.word	0xff9eff9e
    2184:	f79ef79e 	.word	0xf79ef79e
    2188:	f79ef79e 	.word	0xf79ef79e
    218c:	f79ef79e 	.word	0xf79ef79e
    2190:	f79ef79e 	.word	0xf79ef79e
    2194:	f7bef7be 	.word	0xf7bef7be
    2198:	f7bef7be 	.word	0xf7bef7be
    219c:	f7bef7be 	.word	0xf7bef7be
    21a0:	f7bef7be 	.word	0xf7bef7be
    21a4:	f7bef7be 	.word	0xf7bef7be
    21a8:	f79ef7be 	.word	0xf79ef7be
    21ac:	f79ef79e 	.word	0xf79ef79e
    21b0:	f79ef79e 	.word	0xf79ef79e
    21b4:	f79ef79e 	.word	0xf79ef79e
    21b8:	f79ef79e 	.word	0xf79ef79e
    21bc:	f79ef79e 	.word	0xf79ef79e
    21c0:	f79ef79e 	.word	0xf79ef79e
    21c4:	f79ef79e 	.word	0xf79ef79e
    21c8:	f79ef79e 	.word	0xf79ef79e
    21cc:	f79ef79e 	.word	0xf79ef79e
    21d0:	f79ef79e 	.word	0xf79ef79e
    21d4:	f79ef79e 	.word	0xf79ef79e
    21d8:	f79ef79e 	.word	0xf79ef79e
    21dc:	f79ef79e 	.word	0xf79ef79e
    21e0:	f79ef79e 	.word	0xf79ef79e
    21e4:	f79ef79e 	.word	0xf79ef79e
    21e8:	f79ef79e 	.word	0xf79ef79e
    21ec:	f79ef79e 	.word	0xf79ef79e
    21f0:	f79ef79e 	.word	0xf79ef79e
    21f4:	ff9eff9e 	.word	0xff9eff9e
    21f8:	ff9eff9e 	.word	0xff9eff9e
    21fc:	ff9eff9e 	.word	0xff9eff9e
    2200:	f79eff9e 	.word	0xf79eff9e
    2204:	f79eff9e 	.word	0xf79eff9e
    2208:	f79ef79e 	.word	0xf79ef79e
    220c:	f79ef79e 	.word	0xf79ef79e
    2210:	f79ef79e 	.word	0xf79ef79e
    2214:	ff9eff9e 	.word	0xff9eff9e
    2218:	ff9eff9e 	.word	0xff9eff9e
    221c:	ff9eff9e 	.word	0xff9eff9e
    2220:	ff9eff9e 	.word	0xff9eff9e
    2224:	ff9eff9e 	.word	0xff9eff9e
    2228:	ff9eff9e 	.word	0xff9eff9e
    222c:	f79eff9e 	.word	0xf79eff9e
    2230:	f79ef79e 	.word	0xf79ef79e
    2234:	f79ef79e 	.word	0xf79ef79e
    2238:	f79ef79e 	.word	0xf79ef79e
    223c:	f79ef79e 	.word	0xf79ef79e
    2240:	f79ef79e 	.word	0xf79ef79e
    2244:	f79ef79e 	.word	0xf79ef79e
    2248:	f79ef79e 	.word	0xf79ef79e
    224c:	f79ef79e 	.word	0xf79ef79e
    2250:	f79ef79e 	.word	0xf79ef79e
    2254:	f79ef79e 	.word	0xf79ef79e
    2258:	f79ef79e 	.word	0xf79ef79e
    225c:	f79ef79e 	.word	0xf79ef79e
    2260:	f79ef79e 	.word	0xf79ef79e
    2264:	f79ef79e 	.word	0xf79ef79e
    2268:	f79ef79e 	.word	0xf79ef79e
    226c:	f79ef79e 	.word	0xf79ef79e
    2270:	f79ef79e 	.word	0xf79ef79e
    2274:	ff9eff9e 	.word	0xff9eff9e
    2278:	ff9eff9e 	.word	0xff9eff9e
    227c:	f79eff9e 	.word	0xf79eff9e
    2280:	f79ef79e 	.word	0xf79ef79e
    2284:	ffbef79e 	.word	0xffbef79e
    2288:	ffbef79e 	.word	0xffbef79e
    228c:	f79ef79e 	.word	0xf79ef79e
    2290:	b575ffdf 	.word	0xb575ffdf
    2294:	ffbedeba 	.word	0xffbedeba
    2298:	f79ef79e 	.word	0xf79ef79e
    229c:	f79ef79e 	.word	0xf79ef79e
    22a0:	ff9eff9e 	.word	0xff9eff9e
    22a4:	ff9ef79d 	.word	0xff9ef79d
    22a8:	ff9effbe 	.word	0xff9effbe
    22ac:	ff9ef79e 	.word	0xff9ef79e
    22b0:	f7bef7be 	.word	0xf7bef7be
    22b4:	f7bef79e 	.word	0xf7bef79e
    22b8:	f79ef79e 	.word	0xf79ef79e
    22bc:	f79ef79e 	.word	0xf79ef79e
    22c0:	f77ff77e 	.word	0xf77ff77e
    22c4:	f79ff79f 	.word	0xf79ff79f
    22c8:	f7bff79f 	.word	0xf7bff79f
    22cc:	f7bff7bf 	.word	0xf7bff7bf
    22d0:	f7bff7bf 	.word	0xf7bff7bf
    22d4:	ffbff79f 	.word	0xffbff79f
    22d8:	f7bff7bf 	.word	0xf7bff7bf
    22dc:	f7bfffbf 	.word	0xf7bfffbf
    22e0:	ffdff7bf 	.word	0xffdff7bf
    22e4:	ffdfffdf 	.word	0xffdfffdf
    22e8:	ffbff7be 	.word	0xffbff7be
    22ec:	ffffffbf 	.word	0xffffffbf
    22f0:	ffdff79e 	.word	0xffdff79e
    22f4:	ffbfffbf 	.word	0xffbfffbf
    22f8:	ffbfffbf 	.word	0xffbfffbf
    22fc:	ffbfffbf 	.word	0xffbfffbf
    2300:	ffbfffbf 	.word	0xffbfffbf
    2304:	f79ef79e 	.word	0xf79ef79e
    2308:	f79ef79e 	.word	0xf79ef79e
    230c:	f79ef79e 	.word	0xf79ef79e
    2310:	f79ef79e 	.word	0xf79ef79e
    2314:	f79ef79e 	.word	0xf79ef79e
    2318:	f79ef79e 	.word	0xf79ef79e
    231c:	f79ef79e 	.word	0xf79ef79e
    2320:	f79ef79e 	.word	0xf79ef79e
    2324:	f79ef79e 	.word	0xf79ef79e
    2328:	f79ef79e 	.word	0xf79ef79e
    232c:	f79ef79e 	.word	0xf79ef79e
    2330:	f79ef79e 	.word	0xf79ef79e
    2334:	f79ef79e 	.word	0xf79ef79e
    2338:	f79ef79e 	.word	0xf79ef79e
    233c:	f79ef79e 	.word	0xf79ef79e
    2340:	f79ef79e 	.word	0xf79ef79e
    2344:	f79ef79e 	.word	0xf79ef79e
    2348:	f79ef79e 	.word	0xf79ef79e
    234c:	f79ef79e 	.word	0xf79ef79e
    2350:	f79ef79e 	.word	0xf79ef79e
    2354:	f79ef79e 	.word	0xf79ef79e
    2358:	f79ef79e 	.word	0xf79ef79e
    235c:	f79ef79e 	.word	0xf79ef79e
    2360:	f79ef79e 	.word	0xf79ef79e
    2364:	f79ef79e 	.word	0xf79ef79e
    2368:	f79ef79e 	.word	0xf79ef79e
    236c:	f79ef79e 	.word	0xf79ef79e
    2370:	f79ef79e 	.word	0xf79ef79e
    2374:	f79ef79e 	.word	0xf79ef79e
    2378:	f79ef79e 	.word	0xf79ef79e
    237c:	f79ef79e 	.word	0xf79ef79e
    2380:	f79ef79e 	.word	0xf79ef79e
    2384:	f79ef79e 	.word	0xf79ef79e
    2388:	f79ef79e 	.word	0xf79ef79e
    238c:	f79ef79e 	.word	0xf79ef79e
    2390:	f79ef79e 	.word	0xf79ef79e
    2394:	f79ef79e 	.word	0xf79ef79e
    2398:	f79ef79e 	.word	0xf79ef79e
    239c:	f79ef79e 	.word	0xf79ef79e
    23a0:	f79ef79e 	.word	0xf79ef79e
    23a4:	f79ef79e 	.word	0xf79ef79e
    23a8:	f79ef79e 	.word	0xf79ef79e
    23ac:	f79ef79e 	.word	0xf79ef79e
    23b0:	f79ef79e 	.word	0xf79ef79e
    23b4:	f79ef79e 	.word	0xf79ef79e
    23b8:	f79ef79e 	.word	0xf79ef79e
    23bc:	f79ef79e 	.word	0xf79ef79e
    23c0:	f79ef79e 	.word	0xf79ef79e
    23c4:	f79ef79e 	.word	0xf79ef79e
    23c8:	f79ef79e 	.word	0xf79ef79e
    23cc:	f79ef79e 	.word	0xf79ef79e
    23d0:	f79ef79e 	.word	0xf79ef79e
    23d4:	f79ef79e 	.word	0xf79ef79e
    23d8:	f79ef79e 	.word	0xf79ef79e
    23dc:	f79ef79e 	.word	0xf79ef79e
    23e0:	f79ef79e 	.word	0xf79ef79e
    23e4:	f79eff9e 	.word	0xf79eff9e
    23e8:	ffbef77d 	.word	0xffbef77d
    23ec:	f7bef7be 	.word	0xf7bef7be
    23f0:	f79ef79e 	.word	0xf79ef79e
    23f4:	f79ef79e 	.word	0xf79ef79e
    23f8:	f79ef79e 	.word	0xf79ef79e
    23fc:	f79ef79e 	.word	0xf79ef79e
    2400:	f79ef79e 	.word	0xf79ef79e
    2404:	f7bef7be 	.word	0xf7bef7be
    2408:	f7bef7be 	.word	0xf7bef7be
    240c:	f7bef7be 	.word	0xf7bef7be
    2410:	f79ef7be 	.word	0xf79ef7be
    2414:	f7bef7be 	.word	0xf7bef7be
    2418:	f7bef7be 	.word	0xf7bef7be
    241c:	f7bef7be 	.word	0xf7bef7be
    2420:	f7bef7be 	.word	0xf7bef7be
    2424:	f7bef7be 	.word	0xf7bef7be
    2428:	f7bef7be 	.word	0xf7bef7be
    242c:	f7bef7be 	.word	0xf7bef7be
    2430:	f7bef7be 	.word	0xf7bef7be
    2434:	f7bef7be 	.word	0xf7bef7be
    2438:	f7bef7be 	.word	0xf7bef7be
    243c:	f7bef7be 	.word	0xf7bef7be
    2440:	f7bef7be 	.word	0xf7bef7be
    2444:	f7bef7be 	.word	0xf7bef7be
    2448:	f7bef7be 	.word	0xf7bef7be
    244c:	f7bef7be 	.word	0xf7bef7be
    2450:	f7bef7be 	.word	0xf7bef7be
    2454:	f7bef7be 	.word	0xf7bef7be
    2458:	f7bef7be 	.word	0xf7bef7be
    245c:	f7bef7be 	.word	0xf7bef7be
    2460:	f79ef7be 	.word	0xf79ef7be
    2464:	f7bef7be 	.word	0xf7bef7be
    2468:	f7bef7be 	.word	0xf7bef7be
    246c:	f7bef7be 	.word	0xf7bef7be
    2470:	f7bef7be 	.word	0xf7bef7be
    2474:	ffbeffbe 	.word	0xffbeffbe
    2478:	f7bef7be 	.word	0xf7bef7be
    247c:	f7bef7be 	.word	0xf7bef7be
    2480:	f7bef7be 	.word	0xf7bef7be
    2484:	f7bef7be 	.word	0xf7bef7be
    2488:	f7bef7be 	.word	0xf7bef7be
    248c:	f79ef79e 	.word	0xf79ef79e
    2490:	f7bef7be 	.word	0xf7bef7be
    2494:	f79ef79e 	.word	0xf79ef79e
    2498:	ffbef7be 	.word	0xffbef7be
    249c:	ffbeffdf 	.word	0xffbeffdf
    24a0:	ffbeffbe 	.word	0xffbeffbe
    24a4:	f7beff9e 	.word	0xf7beff9e
    24a8:	f79ef7be 	.word	0xf79ef7be
    24ac:	ffbef7be 	.word	0xffbef7be
    24b0:	f79ef7be 	.word	0xf79ef7be
    24b4:	f7bef7be 	.word	0xf7bef7be
    24b8:	f7bef7be 	.word	0xf7bef7be
    24bc:	f7bef7be 	.word	0xf7bef7be
    24c0:	f7bef7be 	.word	0xf7bef7be
    24c4:	f7bef7be 	.word	0xf7bef7be
    24c8:	f7bef7be 	.word	0xf7bef7be
    24cc:	f7bef7be 	.word	0xf7bef7be
    24d0:	f7bef7be 	.word	0xf7bef7be
    24d4:	f7bef7be 	.word	0xf7bef7be
    24d8:	f7bef7be 	.word	0xf7bef7be
    24dc:	f7bef7be 	.word	0xf7bef7be
    24e0:	f7bef7be 	.word	0xf7bef7be
    24e4:	f7bef7be 	.word	0xf7bef7be
    24e8:	f7bef7be 	.word	0xf7bef7be
    24ec:	f7bef7be 	.word	0xf7bef7be
    24f0:	f7bef7be 	.word	0xf7bef7be
    24f4:	f7bef7be 	.word	0xf7bef7be
    24f8:	f7bef7be 	.word	0xf7bef7be
    24fc:	f7bef7be 	.word	0xf7bef7be
    2500:	f7bef7be 	.word	0xf7bef7be
    2504:	f79ef7be 	.word	0xf79ef7be
    2508:	f7bef79e 	.word	0xf7bef79e
    250c:	f79ef79e 	.word	0xf79ef79e
    2510:	ad54ffff 	.word	0xad54ffff
    2514:	ffbedeba 	.word	0xffbedeba
    2518:	f79ef79e 	.word	0xf79ef79e
    251c:	f79ef79e 	.word	0xf79ef79e
    2520:	ff9eff9e 	.word	0xff9eff9e
    2524:	ff9eff9e 	.word	0xff9eff9e
    2528:	ff9ef79e 	.word	0xff9ef79e
    252c:	f7beff9e 	.word	0xf7beff9e
    2530:	f79ef79e 	.word	0xf79ef79e
    2534:	f79ef7be 	.word	0xf79ef7be
    2538:	f79ef79e 	.word	0xf79ef79e
    253c:	f77ef77e 	.word	0xf77ef77e
    2540:	f77ff77f 	.word	0xf77ff77f
    2544:	f79ff79f 	.word	0xf79ff79f
    2548:	f79ff79f 	.word	0xf79ff79f
    254c:	f79ff79f 	.word	0xf79ff79f
    2550:	f7bff79f 	.word	0xf7bff79f
    2554:	f79ff7bf 	.word	0xf79ff7bf
    2558:	f7bff79f 	.word	0xf7bff79f
    255c:	ffbfffdf 	.word	0xffbfffdf
    2560:	ffbff7bf 	.word	0xffbff7bf
    2564:	f7bff7bf 	.word	0xf7bff7bf
    2568:	ffdfffdf 	.word	0xffdfffdf
    256c:	d6baf77e 	.word	0xd6baf77e
    2570:	ffdfffdf 	.word	0xffdfffdf
    2574:	ffbfffbf 	.word	0xffbfffbf
    2578:	ffbfffbf 	.word	0xffbfffbf
    257c:	ffbfffbf 	.word	0xffbfffbf
    2580:	ffbfffbf 	.word	0xffbfffbf
    2584:	ffbeffbf 	.word	0xffbeffbf
    2588:	f79ef79e 	.word	0xf79ef79e
    258c:	f79ef79e 	.word	0xf79ef79e
    2590:	f7bef79e 	.word	0xf7bef79e
    2594:	f79ef79e 	.word	0xf79ef79e
    2598:	f79ef79e 	.word	0xf79ef79e
    259c:	f79ef79e 	.word	0xf79ef79e
    25a0:	f79ef79e 	.word	0xf79ef79e
    25a4:	f79ef79e 	.word	0xf79ef79e
    25a8:	f79ef79e 	.word	0xf79ef79e
    25ac:	f79ef79e 	.word	0xf79ef79e
    25b0:	f79ef79e 	.word	0xf79ef79e
    25b4:	f79ef79e 	.word	0xf79ef79e
    25b8:	f79ef79e 	.word	0xf79ef79e
    25bc:	f79ef79e 	.word	0xf79ef79e
    25c0:	f79ef79e 	.word	0xf79ef79e
    25c4:	f79ef79e 	.word	0xf79ef79e
    25c8:	f79ef79e 	.word	0xf79ef79e
    25cc:	f79ef79e 	.word	0xf79ef79e
    25d0:	f79ef79e 	.word	0xf79ef79e
    25d4:	f79ef79e 	.word	0xf79ef79e
    25d8:	f79ef79e 	.word	0xf79ef79e
    25dc:	f79ef79e 	.word	0xf79ef79e
    25e0:	f79ef79e 	.word	0xf79ef79e
    25e4:	f79ef79e 	.word	0xf79ef79e
    25e8:	f79ef79e 	.word	0xf79ef79e
    25ec:	f79ef79e 	.word	0xf79ef79e
    25f0:	f79ef79e 	.word	0xf79ef79e
    25f4:	f79ef79e 	.word	0xf79ef79e
    25f8:	f79ef79e 	.word	0xf79ef79e
    25fc:	f79ef79e 	.word	0xf79ef79e
    2600:	f79ef79e 	.word	0xf79ef79e
    2604:	f79ef79e 	.word	0xf79ef79e
    2608:	f79ef79e 	.word	0xf79ef79e
    260c:	f79ef79e 	.word	0xf79ef79e
    2610:	f79ef79e 	.word	0xf79ef79e
    2614:	f79ef79e 	.word	0xf79ef79e
    2618:	f79ef79e 	.word	0xf79ef79e
    261c:	f79ef79e 	.word	0xf79ef79e
    2620:	f79ef79e 	.word	0xf79ef79e
    2624:	f79ef79e 	.word	0xf79ef79e
    2628:	f79ef79e 	.word	0xf79ef79e
    262c:	f79ef79e 	.word	0xf79ef79e
    2630:	f79ef79e 	.word	0xf79ef79e
    2634:	f79ef79e 	.word	0xf79ef79e
    2638:	f79ef79e 	.word	0xf79ef79e
    263c:	f79ef79e 	.word	0xf79ef79e
    2640:	f79ef79e 	.word	0xf79ef79e
    2644:	f79ef79e 	.word	0xf79ef79e
    2648:	f79ef79e 	.word	0xf79ef79e
    264c:	f79ef79e 	.word	0xf79ef79e
    2650:	f79ef79e 	.word	0xf79ef79e
    2654:	f79ef79e 	.word	0xf79ef79e
    2658:	f79ef79e 	.word	0xf79ef79e
    265c:	f79ef79e 	.word	0xf79ef79e
    2660:	f79ef79e 	.word	0xf79ef79e
    2664:	ff9eff9e 	.word	0xff9eff9e
    2668:	ffbef79e 	.word	0xffbef79e
    266c:	f7bff79e 	.word	0xf7bff79e
    2670:	ffdff7bf 	.word	0xffdff7bf
    2674:	f7bff7bf 	.word	0xf7bff7bf
    2678:	f7bff7bf 	.word	0xf7bff7bf
    267c:	f7bff7bf 	.word	0xf7bff7bf
    2680:	f7bff7bf 	.word	0xf7bff7bf
    2684:	f7dff7df 	.word	0xf7dff7df
    2688:	f7dff7df 	.word	0xf7dff7df
    268c:	f7dff7df 	.word	0xf7dff7df
    2690:	f7dff7df 	.word	0xf7dff7df
    2694:	ffdff7df 	.word	0xffdff7df
    2698:	ffbfffbf 	.word	0xffbfffbf
    269c:	ffbfffbf 	.word	0xffbfffbf
    26a0:	ffdfffbf 	.word	0xffdfffbf
    26a4:	ffbfffbf 	.word	0xffbfffbf
    26a8:	ffbfffbf 	.word	0xffbfffbf
    26ac:	ffbfffbf 	.word	0xffbfffbf
    26b0:	ffbfffbf 	.word	0xffbfffbf
    26b4:	f7bff7bf 	.word	0xf7bff7bf
    26b8:	f7bff7bf 	.word	0xf7bff7bf
    26bc:	f7bff7bf 	.word	0xf7bff7bf
    26c0:	f7bff7bf 	.word	0xf7bff7bf
    26c4:	ffbfffbf 	.word	0xffbfffbf
    26c8:	ffbfffbf 	.word	0xffbfffbf
    26cc:	ffbfffbf 	.word	0xffbfffbf
    26d0:	ffbfffbf 	.word	0xffbfffbf
    26d4:	ffbfffbf 	.word	0xffbfffbf
    26d8:	ffbfffbf 	.word	0xffbfffbf
    26dc:	ffbfffbf 	.word	0xffbfffbf
    26e0:	ffbfffbf 	.word	0xffbfffbf
    26e4:	f7bff7bf 	.word	0xf7bff7bf
    26e8:	f7bff7bf 	.word	0xf7bff7bf
    26ec:	f7bff7bf 	.word	0xf7bff7bf
    26f0:	f7bff7bf 	.word	0xf7bff7bf
    26f4:	f7dff7df 	.word	0xf7dff7df
    26f8:	f7dff7df 	.word	0xf7dff7df
    26fc:	f7dff7df 	.word	0xf7dff7df
    2700:	f7dff7df 	.word	0xf7dff7df
    2704:	f7bff7df 	.word	0xf7bff7df
    2708:	f7dff7bf 	.word	0xf7dff7bf
    270c:	f7dff7df 	.word	0xf7dff7df
    2710:	f7bff7df 	.word	0xf7bff7df
    2714:	f7bff7bf 	.word	0xf7bff7bf
    2718:	ffdff7df 	.word	0xffdff7df
    271c:	ffdfffdf 	.word	0xffdfffdf
    2720:	ffdfffdf 	.word	0xffdfffdf
    2724:	ffbfffbf 	.word	0xffbfffbf
    2728:	f7dfffdf 	.word	0xf7dfffdf
    272c:	f7dff7df 	.word	0xf7dff7df
    2730:	f7dff7df 	.word	0xf7dff7df
    2734:	f7bff7bf 	.word	0xf7bff7bf
    2738:	f7bff7bf 	.word	0xf7bff7bf
    273c:	f7bff7bf 	.word	0xf7bff7bf
    2740:	f7bff7bf 	.word	0xf7bff7bf
    2744:	ffbfffbf 	.word	0xffbfffbf
    2748:	ffbfffbf 	.word	0xffbfffbf
    274c:	ffbfffbf 	.word	0xffbfffbf
    2750:	ffbfffbf 	.word	0xffbfffbf
    2754:	ffbfffbf 	.word	0xffbfffbf
    2758:	ffbfffbf 	.word	0xffbfffbf
    275c:	ffbfffbf 	.word	0xffbfffbf
    2760:	ffbfffbf 	.word	0xffbfffbf
    2764:	ffbfffbf 	.word	0xffbfffbf
    2768:	ffbfffbf 	.word	0xffbfffbf
    276c:	ffbfffbf 	.word	0xffbfffbf
    2770:	ffbfffbf 	.word	0xffbfffbf
    2774:	f7dff7df 	.word	0xf7dff7df
    2778:	f7dff7df 	.word	0xf7dff7df
    277c:	f7dff7df 	.word	0xf7dff7df
    2780:	f7dff7df 	.word	0xf7dff7df
    2784:	f7bff7df 	.word	0xf7bff7df
    2788:	f7dff7df 	.word	0xf7dff7df
    278c:	f7dfffdf 	.word	0xf7dfffdf
    2790:	ad75ffff 	.word	0xad75ffff
    2794:	ffbedeba 	.word	0xffbedeba
    2798:	f79ef79e 	.word	0xf79ef79e
    279c:	f79ef79e 	.word	0xf79ef79e
    27a0:	f79ef79e 	.word	0xf79ef79e
    27a4:	f79effbe 	.word	0xf79effbe
    27a8:	f79ef79e 	.word	0xf79ef79e
    27ac:	f79ef79e 	.word	0xf79ef79e
    27b0:	f79ef79e 	.word	0xf79ef79e
    27b4:	f79ef7bf 	.word	0xf79ef7bf
    27b8:	ef7ef79e 	.word	0xef7ef79e
    27bc:	ef7eef7e 	.word	0xef7eef7e
    27c0:	ef7fef7f 	.word	0xef7fef7f
    27c4:	ef7fef7f 	.word	0xef7fef7f
    27c8:	f79ff79f 	.word	0xf79ff79f
    27cc:	f79ff79f 	.word	0xf79ff79f
    27d0:	f79ff79f 	.word	0xf79ff79f
    27d4:	f79ff79f 	.word	0xf79ff79f
    27d8:	f7bff7bf 	.word	0xf7bff7bf
    27dc:	f7bff7bf 	.word	0xf7bff7bf
    27e0:	f79ff7bf 	.word	0xf79ff7bf
    27e4:	ffdff7bf 	.word	0xffdff7bf
    27e8:	f79eef3d 	.word	0xf79eef3d
    27ec:	ffdfffbf 	.word	0xffdfffbf
    27f0:	f7beffdf 	.word	0xf7beffdf
    27f4:	ffbfffbf 	.word	0xffbfffbf
    27f8:	ffbfffbf 	.word	0xffbfffbf
    27fc:	ffbfffbf 	.word	0xffbfffbf
    2800:	ffbfffbf 	.word	0xffbfffbf
    2804:	ffbfffdf 	.word	0xffbfffdf
    2808:	f7beffbe 	.word	0xf7beffbe
    280c:	f79ef79e 	.word	0xf79ef79e
    2810:	f7bef79e 	.word	0xf7bef79e
    2814:	f79ef79e 	.word	0xf79ef79e
    2818:	f79ef79e 	.word	0xf79ef79e
    281c:	f79ef79e 	.word	0xf79ef79e
    2820:	f79ef79e 	.word	0xf79ef79e
    2824:	f79ef79e 	.word	0xf79ef79e
    2828:	f79ef79e 	.word	0xf79ef79e
    282c:	f79ef79e 	.word	0xf79ef79e
    2830:	f79ef79e 	.word	0xf79ef79e
    2834:	f79ef79e 	.word	0xf79ef79e
    2838:	f79ef79e 	.word	0xf79ef79e
    283c:	f79ef79e 	.word	0xf79ef79e
    2840:	f79ef79e 	.word	0xf79ef79e
    2844:	f79ef79e 	.word	0xf79ef79e
    2848:	f79ef79e 	.word	0xf79ef79e
    284c:	f79ef79e 	.word	0xf79ef79e
    2850:	f79ef79e 	.word	0xf79ef79e
    2854:	f79ef79e 	.word	0xf79ef79e
    2858:	f79ef79e 	.word	0xf79ef79e
    285c:	f79ef79e 	.word	0xf79ef79e
    2860:	f79ef79e 	.word	0xf79ef79e
    2864:	f79ef79e 	.word	0xf79ef79e
    2868:	f79ef79e 	.word	0xf79ef79e
    286c:	f79ef79e 	.word	0xf79ef79e
    2870:	f79ef79e 	.word	0xf79ef79e
    2874:	f79ef79e 	.word	0xf79ef79e
    2878:	f79ef79e 	.word	0xf79ef79e
    287c:	f79ef79e 	.word	0xf79ef79e
    2880:	f79ef79e 	.word	0xf79ef79e
    2884:	f79ef79e 	.word	0xf79ef79e
    2888:	f79ef79e 	.word	0xf79ef79e
    288c:	f79ef79e 	.word	0xf79ef79e
    2890:	f79ef79e 	.word	0xf79ef79e
    2894:	f79ef79e 	.word	0xf79ef79e
    2898:	f79ef79e 	.word	0xf79ef79e
    289c:	f79ef79e 	.word	0xf79ef79e
    28a0:	f79ef79e 	.word	0xf79ef79e
    28a4:	f79ef79e 	.word	0xf79ef79e
    28a8:	f79ef79e 	.word	0xf79ef79e
    28ac:	f79ef79e 	.word	0xf79ef79e
    28b0:	f79ef79e 	.word	0xf79ef79e
    28b4:	f79ef79e 	.word	0xf79ef79e
    28b8:	f79ef79e 	.word	0xf79ef79e
    28bc:	f79ef79e 	.word	0xf79ef79e
    28c0:	f79ef79e 	.word	0xf79ef79e
    28c4:	f79ef79e 	.word	0xf79ef79e
    28c8:	f79ef79e 	.word	0xf79ef79e
    28cc:	f79ef79e 	.word	0xf79ef79e
    28d0:	f79ef79e 	.word	0xf79ef79e
    28d4:	f79ef79e 	.word	0xf79ef79e
    28d8:	f79ef79e 	.word	0xf79ef79e
    28dc:	f79ef7be 	.word	0xf79ef7be
    28e0:	f79ef79e 	.word	0xf79ef79e
    28e4:	f79df77d 	.word	0xf79df77d
    28e8:	f7bef79e 	.word	0xf7bef79e
    28ec:	ef9ef79e 	.word	0xef9ef79e
    28f0:	df5edf1d 	.word	0xdf5edf1d
    28f4:	e77ee77e 	.word	0xe77ee77e
    28f8:	e77fe77f 	.word	0xe77fe77f
    28fc:	e77fe77f 	.word	0xe77fe77f
    2900:	e77ee77f 	.word	0xe77ee77f
    2904:	e77ee77e 	.word	0xe77ee77e
    2908:	e75ee75e 	.word	0xe75ee75e
    290c:	e77ee77f 	.word	0xe77ee77f
    2910:	e77ee77f 	.word	0xe77ee77f
    2914:	e77fe77f 	.word	0xe77fe77f
    2918:	e77ee77f 	.word	0xe77ee77f
    291c:	e77ee77f 	.word	0xe77ee77f
    2920:	e77fe77f 	.word	0xe77fe77f
    2924:	e77ee77f 	.word	0xe77ee77f
    2928:	e77ee77f 	.word	0xe77ee77f
    292c:	e77ee77f 	.word	0xe77ee77f
    2930:	e77fe77f 	.word	0xe77fe77f
    2934:	e77ee77f 	.word	0xe77ee77f
    2938:	e77ee77f 	.word	0xe77ee77f
    293c:	e77ee77f 	.word	0xe77ee77f
    2940:	e77ee77f 	.word	0xe77ee77f
    2944:	e77ee77f 	.word	0xe77ee77f
    2948:	e77ee77f 	.word	0xe77ee77f
    294c:	e77ee77f 	.word	0xe77ee77f
    2950:	e77ee77f 	.word	0xe77ee77f
    2954:	e77fe77f 	.word	0xe77fe77f
    2958:	e77fe77f 	.word	0xe77fe77f
    295c:	e77ee77f 	.word	0xe77ee77f
    2960:	e77ee77f 	.word	0xe77ee77f
    2964:	e77ee77f 	.word	0xe77ee77f
    2968:	e77ee77f 	.word	0xe77ee77f
    296c:	e77ee77f 	.word	0xe77ee77f
    2970:	e77ee77f 	.word	0xe77ee77f
    2974:	e77ee77e 	.word	0xe77ee77e
    2978:	e77fe77e 	.word	0xe77fe77e
    297c:	e77ee77f 	.word	0xe77ee77f
    2980:	e77fe77f 	.word	0xe77fe77f
    2984:	e77fe77f 	.word	0xe77fe77f
    2988:	e77fe77f 	.word	0xe77fe77f
    298c:	e77ee77e 	.word	0xe77ee77e
    2990:	ef9fe77f 	.word	0xef9fe77f
    2994:	ef9fef9f 	.word	0xef9fef9f
    2998:	ef9fef9f 	.word	0xef9fef9f
    299c:	ef9fef9f 	.word	0xef9fef9f
    29a0:	ef9fef9f 	.word	0xef9fef9f
    29a4:	e77eef9f 	.word	0xe77eef9f
    29a8:	e77fe77e 	.word	0xe77fe77e
    29ac:	e77fe77f 	.word	0xe77fe77f
    29b0:	e77fe77f 	.word	0xe77fe77f
    29b4:	e77ee77f 	.word	0xe77ee77f
    29b8:	e77ee77f 	.word	0xe77ee77f
    29bc:	e77ee77f 	.word	0xe77ee77f
    29c0:	e77ee77f 	.word	0xe77ee77f
    29c4:	e77ee77f 	.word	0xe77ee77f
    29c8:	e77ee77f 	.word	0xe77ee77f
    29cc:	e77ee77f 	.word	0xe77ee77f
    29d0:	e77fe77f 	.word	0xe77fe77f
    29d4:	e77ee77f 	.word	0xe77ee77f
    29d8:	e77ee77f 	.word	0xe77ee77f
    29dc:	e77ee77f 	.word	0xe77ee77f
    29e0:	e77ee77f 	.word	0xe77ee77f
    29e4:	e77ee77f 	.word	0xe77ee77f
    29e8:	e77ee77f 	.word	0xe77ee77f
    29ec:	e77ee77f 	.word	0xe77ee77f
    29f0:	e77ee77f 	.word	0xe77ee77f
    29f4:	e77ee77f 	.word	0xe77ee77f
    29f8:	e77fe77f 	.word	0xe77fe77f
    29fc:	e77fe77f 	.word	0xe77fe77f
    2a00:	e77fe77f 	.word	0xe77fe77f
    2a04:	e77ee77f 	.word	0xe77ee77f
    2a08:	e75ee77f 	.word	0xe75ee77f
    2a0c:	e77ee77f 	.word	0xe77ee77f
    2a10:	ad97ef9f 	.word	0xad97ef9f
    2a14:	ffbedeba 	.word	0xffbedeba
    2a18:	f79ef79e 	.word	0xf79ef79e
    2a1c:	f79ef79e 	.word	0xf79ef79e
    2a20:	f79ef79e 	.word	0xf79ef79e
    2a24:	f79ef79e 	.word	0xf79ef79e
    2a28:	f79ef7be 	.word	0xf79ef7be
    2a2c:	f79ef79e 	.word	0xf79ef79e
    2a30:	f7bff79e 	.word	0xf7bff79e
    2a34:	ef9ef79f 	.word	0xef9ef79f
    2a38:	ef7eef7e 	.word	0xef7eef7e
    2a3c:	ef7eef7e 	.word	0xef7eef7e
    2a40:	ef7fef7f 	.word	0xef7fef7f
    2a44:	ef7fef7f 	.word	0xef7fef7f
    2a48:	ef9fef9f 	.word	0xef9fef9f
    2a4c:	f79ff79f 	.word	0xf79ff79f
    2a50:	f79ff79f 	.word	0xf79ff79f
    2a54:	f79ff79f 	.word	0xf79ff79f
    2a58:	f7bff7bf 	.word	0xf7bff7bf
    2a5c:	f79ff79e 	.word	0xf79ff79e
    2a60:	f7bfffbf 	.word	0xf7bfffbf
    2a64:	f7bff7bf 	.word	0xf7bff7bf
    2a68:	f77ee71c 	.word	0xf77ee71c
    2a6c:	f7bfffdf 	.word	0xf7bfffdf
    2a70:	ffdff7be 	.word	0xffdff7be
    2a74:	ffbfffbf 	.word	0xffbfffbf
    2a78:	ffbfffbf 	.word	0xffbfffbf
    2a7c:	ffbfffbf 	.word	0xffbfffbf
    2a80:	ffbfffbf 	.word	0xffbfffbf
    2a84:	ffbfffbf 	.word	0xffbfffbf
    2a88:	ffbeffdf 	.word	0xffbeffdf
    2a8c:	f7beffbe 	.word	0xf7beffbe
    2a90:	f79ef79e 	.word	0xf79ef79e
    2a94:	f79ef79e 	.word	0xf79ef79e
    2a98:	f79ef79e 	.word	0xf79ef79e
    2a9c:	f79ef79e 	.word	0xf79ef79e
    2aa0:	f79ef79e 	.word	0xf79ef79e
    2aa4:	f79ef79e 	.word	0xf79ef79e
    2aa8:	f79ef79e 	.word	0xf79ef79e
    2aac:	f79ef79e 	.word	0xf79ef79e
    2ab0:	f79ef79e 	.word	0xf79ef79e
    2ab4:	f79ef79e 	.word	0xf79ef79e
    2ab8:	f79ef79e 	.word	0xf79ef79e
    2abc:	f79ef79e 	.word	0xf79ef79e
    2ac0:	f79ef79e 	.word	0xf79ef79e
    2ac4:	f79ef79e 	.word	0xf79ef79e
    2ac8:	f79ef79e 	.word	0xf79ef79e
    2acc:	f79ef79e 	.word	0xf79ef79e
    2ad0:	f79ef79e 	.word	0xf79ef79e
    2ad4:	f79ef79e 	.word	0xf79ef79e
    2ad8:	f79ef79e 	.word	0xf79ef79e
    2adc:	f79ef79e 	.word	0xf79ef79e
    2ae0:	f79ef79e 	.word	0xf79ef79e
    2ae4:	f79ef79e 	.word	0xf79ef79e
    2ae8:	f79ef79e 	.word	0xf79ef79e
    2aec:	f79ef79e 	.word	0xf79ef79e
    2af0:	f79ef79e 	.word	0xf79ef79e
    2af4:	f79ef79e 	.word	0xf79ef79e
    2af8:	f79ef79e 	.word	0xf79ef79e
    2afc:	f79ef79e 	.word	0xf79ef79e
    2b00:	f79ef79e 	.word	0xf79ef79e
    2b04:	f79ef79e 	.word	0xf79ef79e
    2b08:	f79ef79e 	.word	0xf79ef79e
    2b0c:	f79ef79e 	.word	0xf79ef79e
    2b10:	f79ef79e 	.word	0xf79ef79e
    2b14:	f79ef79e 	.word	0xf79ef79e
    2b18:	f79ef79e 	.word	0xf79ef79e
    2b1c:	f79ef79e 	.word	0xf79ef79e
    2b20:	f79ef79e 	.word	0xf79ef79e
    2b24:	f79ef79e 	.word	0xf79ef79e
    2b28:	f79ef79e 	.word	0xf79ef79e
    2b2c:	f79ef79e 	.word	0xf79ef79e
    2b30:	f79ef79e 	.word	0xf79ef79e
    2b34:	f79ef79e 	.word	0xf79ef79e
    2b38:	f79ef79e 	.word	0xf79ef79e
    2b3c:	f79ef79e 	.word	0xf79ef79e
    2b40:	f79ef79e 	.word	0xf79ef79e
    2b44:	f79ef79e 	.word	0xf79ef79e
    2b48:	f79ef79e 	.word	0xf79ef79e
    2b4c:	f79ef79e 	.word	0xf79ef79e
    2b50:	f79ef79e 	.word	0xf79ef79e
    2b54:	f79ef79e 	.word	0xf79ef79e
    2b58:	f79ef79e 	.word	0xf79ef79e
    2b5c:	f79ef79e 	.word	0xf79ef79e
    2b60:	f79df79e 	.word	0xf79df79e
    2b64:	f77df77d 	.word	0xf77df77d
    2b68:	f79ef79d 	.word	0xf79ef79d
    2b6c:	e77ef7bf 	.word	0xe77ef7bf
    2b70:	be5bc67b 	.word	0xbe5bc67b
    2b74:	be5bbe5b 	.word	0xbe5bbe5b
    2b78:	be5bbe5b 	.word	0xbe5bbe5b
    2b7c:	be5bbe5b 	.word	0xbe5bbe5b
    2b80:	be5bbe5b 	.word	0xbe5bbe5b
    2b84:	be5bbe5b 	.word	0xbe5bbe5b
    2b88:	be5bbe5b 	.word	0xbe5bbe5b
    2b8c:	be7bbe7b 	.word	0xbe7bbe7b
    2b90:	be7bbe7b 	.word	0xbe7bbe7b
    2b94:	be7bbe7b 	.word	0xbe7bbe7b
    2b98:	be7bbe7b 	.word	0xbe7bbe7b
    2b9c:	be7bbe7b 	.word	0xbe7bbe7b
    2ba0:	be7bbe7b 	.word	0xbe7bbe7b
    2ba4:	be7bbe7b 	.word	0xbe7bbe7b
    2ba8:	be7bbe7b 	.word	0xbe7bbe7b
    2bac:	be7cbe7b 	.word	0xbe7cbe7b
    2bb0:	be7cbe7c 	.word	0xbe7cbe7c
    2bb4:	be7cbe7c 	.word	0xbe7cbe7c
    2bb8:	be7cbe7c 	.word	0xbe7cbe7c
    2bbc:	be7cbe7c 	.word	0xbe7cbe7c
    2bc0:	be7cbe7c 	.word	0xbe7cbe7c
    2bc4:	be7bbe7b 	.word	0xbe7bbe7b
    2bc8:	be7bbe7b 	.word	0xbe7bbe7b
    2bcc:	be7bbe7b 	.word	0xbe7bbe7b
    2bd0:	be7bbe7b 	.word	0xbe7bbe7b
    2bd4:	be7cbe7c 	.word	0xbe7cbe7c
    2bd8:	be7bbe7b 	.word	0xbe7bbe7b
    2bdc:	be7bbe7b 	.word	0xbe7bbe7b
    2be0:	be7bbe7b 	.word	0xbe7bbe7b
    2be4:	be7cbe7c 	.word	0xbe7cbe7c
    2be8:	be7cbe7c 	.word	0xbe7cbe7c
    2bec:	be7cbe7c 	.word	0xbe7cbe7c
    2bf0:	be7cbe7c 	.word	0xbe7cbe7c
    2bf4:	be7bbe7b 	.word	0xbe7bbe7b
    2bf8:	be7bbe7b 	.word	0xbe7bbe7b
    2bfc:	be7bbe7b 	.word	0xbe7bbe7b
    2c00:	be7bbe7b 	.word	0xbe7bbe7b
    2c04:	c67bc67b 	.word	0xc67bc67b
    2c08:	c67bc67b 	.word	0xc67bc67b
    2c0c:	c67cc65b 	.word	0xc67cc65b
    2c10:	ceddce9c 	.word	0xceddce9c
    2c14:	ceddcedd 	.word	0xceddcedd
    2c18:	cedccedc 	.word	0xcedccedc
    2c1c:	cebccebc 	.word	0xcebccebc
    2c20:	cebccebc 	.word	0xcebccebc
    2c24:	c69bcebc 	.word	0xc69bcebc
    2c28:	c67bc67b 	.word	0xc67bc67b
    2c2c:	c67bbe7b 	.word	0xc67bbe7b
    2c30:	be7bbe7b 	.word	0xbe7bbe7b
    2c34:	be7cbe7c 	.word	0xbe7cbe7c
    2c38:	be7cbe7c 	.word	0xbe7cbe7c
    2c3c:	be7cbe7c 	.word	0xbe7cbe7c
    2c40:	be7cbe7c 	.word	0xbe7cbe7c
    2c44:	be7bbe7b 	.word	0xbe7bbe7b
    2c48:	be7bbe7b 	.word	0xbe7bbe7b
    2c4c:	be7bbe7b 	.word	0xbe7bbe7b
    2c50:	be7cbe7c 	.word	0xbe7cbe7c
    2c54:	be7bbe7b 	.word	0xbe7bbe7b
    2c58:	be7bbe7b 	.word	0xbe7bbe7b
    2c5c:	be7bbe7b 	.word	0xbe7bbe7b
    2c60:	be7bbe7b 	.word	0xbe7bbe7b
    2c64:	be7bbe7b 	.word	0xbe7bbe7b
    2c68:	be7bbe7b 	.word	0xbe7bbe7b
    2c6c:	be7bbe7b 	.word	0xbe7bbe7b
    2c70:	be7bbe7b 	.word	0xbe7bbe7b
    2c74:	c67bc67b 	.word	0xc67bc67b
    2c78:	be7bc67b 	.word	0xbe7bc67b
    2c7c:	be7cbe7c 	.word	0xbe7cbe7c
    2c80:	be7cbe7c 	.word	0xbe7cbe7c
    2c84:	be7bbe7c 	.word	0xbe7bbe7c
    2c88:	be5bc69c 	.word	0xbe5bc69c
    2c8c:	c67bc65b 	.word	0xc67bc65b
    2c90:	9d36cebc 	.word	0x9d36cebc
    2c94:	ffbedeba 	.word	0xffbedeba
    2c98:	f79ef79e 	.word	0xf79ef79e
    2c9c:	f79ef79e 	.word	0xf79ef79e
    2ca0:	f79ef79e 	.word	0xf79ef79e
    2ca4:	f7bef79e 	.word	0xf7bef79e
    2ca8:	f79ef7be 	.word	0xf79ef7be
    2cac:	f7bff79e 	.word	0xf7bff79e
    2cb0:	f79ef7bf 	.word	0xf79ef7bf
    2cb4:	ef7eef7e 	.word	0xef7eef7e
    2cb8:	ef7eef5e 	.word	0xef7eef5e
    2cbc:	ef7fef7e 	.word	0xef7fef7e
    2cc0:	ef7fef7f 	.word	0xef7fef7f
    2cc4:	ef7fef7f 	.word	0xef7fef7f
    2cc8:	ef9fef7f 	.word	0xef9fef7f
    2ccc:	ef9fef9f 	.word	0xef9fef9f
    2cd0:	f7bff79f 	.word	0xf7bff79f
    2cd4:	ef9ef7bf 	.word	0xef9ef7bf
    2cd8:	ffbff79f 	.word	0xffbff79f
    2cdc:	f79ff7bf 	.word	0xf79ff7bf
    2ce0:	ffdff7bf 	.word	0xffdff7bf
    2ce4:	e71cffdf 	.word	0xe71cffdf
    2ce8:	f7bfffdf 	.word	0xf7bfffdf
    2cec:	ffdff79e 	.word	0xffdff79e
    2cf0:	ffbfffff 	.word	0xffbfffff
    2cf4:	ffbfffbf 	.word	0xffbfffbf
    2cf8:	ffbfffbf 	.word	0xffbfffbf
    2cfc:	ffbfffbf 	.word	0xffbfffbf
    2d00:	ffbfffbf 	.word	0xffbfffbf
    2d04:	ffbfffbf 	.word	0xffbfffbf
    2d08:	ffdfffdf 	.word	0xffdfffdf
    2d0c:	ffbeffdf 	.word	0xffbeffdf
    2d10:	f79ef7be 	.word	0xf79ef7be
    2d14:	f79ef79e 	.word	0xf79ef79e
    2d18:	f79ef79e 	.word	0xf79ef79e
    2d1c:	f79ef79e 	.word	0xf79ef79e
    2d20:	f79ef79e 	.word	0xf79ef79e
    2d24:	f79ef79e 	.word	0xf79ef79e
    2d28:	f79ef79e 	.word	0xf79ef79e
    2d2c:	f79ef79e 	.word	0xf79ef79e
    2d30:	f79ef79e 	.word	0xf79ef79e
    2d34:	f79ef79e 	.word	0xf79ef79e
    2d38:	f79ef79e 	.word	0xf79ef79e
    2d3c:	f79ef79e 	.word	0xf79ef79e
    2d40:	f79ef79e 	.word	0xf79ef79e
    2d44:	f79ef79e 	.word	0xf79ef79e
    2d48:	f79ef79e 	.word	0xf79ef79e
    2d4c:	f79ef79e 	.word	0xf79ef79e
    2d50:	f79ef79e 	.word	0xf79ef79e
    2d54:	f79ef79e 	.word	0xf79ef79e
    2d58:	f79ef79e 	.word	0xf79ef79e
    2d5c:	f79ef79e 	.word	0xf79ef79e
    2d60:	f79ef79e 	.word	0xf79ef79e
    2d64:	f79ef79e 	.word	0xf79ef79e
    2d68:	f79ef79e 	.word	0xf79ef79e
    2d6c:	f79ef79e 	.word	0xf79ef79e
    2d70:	f79ef79e 	.word	0xf79ef79e
    2d74:	f79ef79e 	.word	0xf79ef79e
    2d78:	f79ef79e 	.word	0xf79ef79e
    2d7c:	f79ef79e 	.word	0xf79ef79e
    2d80:	f79ef79e 	.word	0xf79ef79e
    2d84:	f79ef79e 	.word	0xf79ef79e
    2d88:	f79ef79e 	.word	0xf79ef79e
    2d8c:	f79ef79e 	.word	0xf79ef79e
    2d90:	f79ef79e 	.word	0xf79ef79e
    2d94:	f79ef79e 	.word	0xf79ef79e
    2d98:	f79ef79e 	.word	0xf79ef79e
    2d9c:	f79ef79e 	.word	0xf79ef79e
    2da0:	f79ef79e 	.word	0xf79ef79e
    2da4:	f79ef79e 	.word	0xf79ef79e
    2da8:	f79ef79e 	.word	0xf79ef79e
    2dac:	f79ef79e 	.word	0xf79ef79e
    2db0:	f79ef79e 	.word	0xf79ef79e
    2db4:	f79ef79e 	.word	0xf79ef79e
    2db8:	f79ef79e 	.word	0xf79ef79e
    2dbc:	f79ef79e 	.word	0xf79ef79e
    2dc0:	f79ef79e 	.word	0xf79ef79e
    2dc4:	f79ef79e 	.word	0xf79ef79e
    2dc8:	f79ef79e 	.word	0xf79ef79e
    2dcc:	f79ef79e 	.word	0xf79ef79e
    2dd0:	f79ef79e 	.word	0xf79ef79e
    2dd4:	f79ef79e 	.word	0xf79ef79e
    2dd8:	f79ef79e 	.word	0xf79ef79e
    2ddc:	f79ef79e 	.word	0xf79ef79e
    2de0:	f79df79e 	.word	0xf79df79e
    2de4:	f79df79d 	.word	0xf79df79d
    2de8:	f79ef77d 	.word	0xf79ef77d
    2dec:	e77ef7df 	.word	0xe77ef7df
    2df0:	be5bc67b 	.word	0xbe5bc67b
    2df4:	be7dbe7c 	.word	0xbe7dbe7c
    2df8:	be9dbe9d 	.word	0xbe9dbe9d
    2dfc:	be9dbe9d 	.word	0xbe9dbe9d
    2e00:	be9dbe9d 	.word	0xbe9dbe9d
    2e04:	be9dbe7d 	.word	0xbe9dbe7d
    2e08:	be9dbe7d 	.word	0xbe9dbe7d
    2e0c:	be9dbe9d 	.word	0xbe9dbe9d
    2e10:	be9dbe9d 	.word	0xbe9dbe9d
    2e14:	be9dbe9d 	.word	0xbe9dbe9d
    2e18:	be9dbe9d 	.word	0xbe9dbe9d
    2e1c:	be9dbe9d 	.word	0xbe9dbe9d
    2e20:	be9dbe9d 	.word	0xbe9dbe9d
    2e24:	be9dbe9d 	.word	0xbe9dbe9d
    2e28:	be9dbe9d 	.word	0xbe9dbe9d
    2e2c:	be9dbe9d 	.word	0xbe9dbe9d
    2e30:	be9dbe9d 	.word	0xbe9dbe9d
    2e34:	be9dbe9d 	.word	0xbe9dbe9d
    2e38:	be9dbe9d 	.word	0xbe9dbe9d
    2e3c:	be9dbe9d 	.word	0xbe9dbe9d
    2e40:	be9dbe9d 	.word	0xbe9dbe9d
    2e44:	be9dbe9d 	.word	0xbe9dbe9d
    2e48:	be9dbe9d 	.word	0xbe9dbe9d
    2e4c:	be9dbe9d 	.word	0xbe9dbe9d
    2e50:	be9dbe9d 	.word	0xbe9dbe9d
    2e54:	be9dbe9d 	.word	0xbe9dbe9d
    2e58:	be9dbe9d 	.word	0xbe9dbe9d
    2e5c:	be9dbe9d 	.word	0xbe9dbe9d
    2e60:	be9dbe9d 	.word	0xbe9dbe9d
    2e64:	be9dbe9d 	.word	0xbe9dbe9d
    2e68:	be9dbe9d 	.word	0xbe9dbe9d
    2e6c:	be9dbe9d 	.word	0xbe9dbe9d
    2e70:	be9dbe9d 	.word	0xbe9dbe9d
    2e74:	c69dc69d 	.word	0xc69dc69d
    2e78:	c69dc69d 	.word	0xc69dc69d
    2e7c:	c69dc69d 	.word	0xc69dc69d
    2e80:	c69dc69d 	.word	0xc69dc69d
    2e84:	c69dc69d 	.word	0xc69dc69d
    2e88:	c69dc67d 	.word	0xc69dc67d
    2e8c:	cedecebd 	.word	0xcedecebd
    2e90:	cefecefe 	.word	0xcefecefe
    2e94:	cefdcefe 	.word	0xcefdcefe
    2e98:	cefdcefd 	.word	0xcefdcefd
    2e9c:	d6fdcefd 	.word	0xd6fdcefd
    2ea0:	ceddcefd 	.word	0xceddcefd
    2ea4:	ceddd6fe 	.word	0xceddd6fe
    2ea8:	c69cc6bd 	.word	0xc69cc6bd
    2eac:	c69dc69c 	.word	0xc69dc69c
    2eb0:	be9dc69d 	.word	0xbe9dc69d
    2eb4:	be9dbe9d 	.word	0xbe9dbe9d
    2eb8:	be9dbe9d 	.word	0xbe9dbe9d
    2ebc:	be9dbe9d 	.word	0xbe9dbe9d
    2ec0:	be9dbe9d 	.word	0xbe9dbe9d
    2ec4:	be9dbe9d 	.word	0xbe9dbe9d
    2ec8:	c6bdbe9d 	.word	0xc6bdbe9d
    2ecc:	c6bdc6bd 	.word	0xc6bdc6bd
    2ed0:	c6bdc6bd 	.word	0xc6bdc6bd
    2ed4:	be9dbe9d 	.word	0xbe9dbe9d
    2ed8:	be9dbe9d 	.word	0xbe9dbe9d
    2edc:	be9dbe9d 	.word	0xbe9dbe9d
    2ee0:	be9dbe9d 	.word	0xbe9dbe9d
    2ee4:	be9dbe9d 	.word	0xbe9dbe9d
    2ee8:	be9dbe9d 	.word	0xbe9dbe9d
    2eec:	be9dbe9d 	.word	0xbe9dbe9d
    2ef0:	be9dbe9d 	.word	0xbe9dbe9d
    2ef4:	c69dc69d 	.word	0xc69dc69d
    2ef8:	c69dc69d 	.word	0xc69dc69d
    2efc:	be9dc69d 	.word	0xbe9dc69d
    2f00:	be9dbe9d 	.word	0xbe9dbe9d
    2f04:	c69dbe9d 	.word	0xc69dbe9d
    2f08:	c69dc6bd 	.word	0xc69dc6bd
    2f0c:	c69cc69d 	.word	0xc69cc69d
    2f10:	9d57cebd 	.word	0x9d57cebd
    2f14:	ffbedeba 	.word	0xffbedeba
    2f18:	f79ef79e 	.word	0xf79ef79e
    2f1c:	f79ef79e 	.word	0xf79ef79e
    2f20:	f79ef79e 	.word	0xf79ef79e
    2f24:	f7bef79e 	.word	0xf7bef79e
    2f28:	f79ef79e 	.word	0xf79ef79e
    2f2c:	f7bff79e 	.word	0xf7bff79e
    2f30:	ef5ef79e 	.word	0xef5ef79e
    2f34:	e75ee75e 	.word	0xe75ee75e
    2f38:	ef5ee75e 	.word	0xef5ee75e
    2f3c:	ef7eef7e 	.word	0xef7eef7e
    2f40:	ef7eef7e 	.word	0xef7eef7e
    2f44:	ef7fef7f 	.word	0xef7fef7f
    2f48:	ef7fef7f 	.word	0xef7fef7f
    2f4c:	ef9fef9f 	.word	0xef9fef9f
    2f50:	f79ff79f 	.word	0xf79ff79f
    2f54:	f79ff79f 	.word	0xf79ff79f
    2f58:	f79ff79f 	.word	0xf79ff79f
    2f5c:	f7bff79f 	.word	0xf7bff79f
    2f60:	ef7ef7bf 	.word	0xef7ef7bf
    2f64:	ffdfdefc 	.word	0xffdfdefc
    2f68:	f7bff79e 	.word	0xf7bff79e
    2f6c:	ffbfffbf 	.word	0xffbfffbf
    2f70:	ffbff79e 	.word	0xffbff79e
    2f74:	ffbfffbf 	.word	0xffbfffbf
    2f78:	ffbfffbf 	.word	0xffbfffbf
    2f7c:	ffbfffbf 	.word	0xffbfffbf
    2f80:	ffbfffbf 	.word	0xffbfffbf
    2f84:	ffbfffbf 	.word	0xffbfffbf
    2f88:	ffdfffbf 	.word	0xffdfffbf
    2f8c:	ffdfffdf 	.word	0xffdfffdf
    2f90:	f7beffbe 	.word	0xf7beffbe
    2f94:	f79ef79e 	.word	0xf79ef79e
    2f98:	f79ef79e 	.word	0xf79ef79e
    2f9c:	f79ef79e 	.word	0xf79ef79e
    2fa0:	f7bef79e 	.word	0xf7bef79e
    2fa4:	f79ef79e 	.word	0xf79ef79e
    2fa8:	f79ef79e 	.word	0xf79ef79e
    2fac:	f79ef79e 	.word	0xf79ef79e
    2fb0:	f79ef79e 	.word	0xf79ef79e
    2fb4:	f79ef79e 	.word	0xf79ef79e
    2fb8:	f79ef79e 	.word	0xf79ef79e
    2fbc:	f79ef79e 	.word	0xf79ef79e
    2fc0:	f79ef79e 	.word	0xf79ef79e
    2fc4:	f79ef79e 	.word	0xf79ef79e
    2fc8:	f79ef79e 	.word	0xf79ef79e
    2fcc:	f79ef79e 	.word	0xf79ef79e
    2fd0:	f79ef79e 	.word	0xf79ef79e
    2fd4:	f79ef79e 	.word	0xf79ef79e
    2fd8:	f79ef79e 	.word	0xf79ef79e
    2fdc:	f79ef79e 	.word	0xf79ef79e
    2fe0:	f79ef79e 	.word	0xf79ef79e
    2fe4:	f79ef79e 	.word	0xf79ef79e
    2fe8:	f79ef79e 	.word	0xf79ef79e
    2fec:	f79ef79e 	.word	0xf79ef79e
    2ff0:	f79ef79e 	.word	0xf79ef79e
    2ff4:	f79ef79e 	.word	0xf79ef79e
    2ff8:	f79ef79e 	.word	0xf79ef79e
    2ffc:	f79ef79e 	.word	0xf79ef79e
    3000:	f79ef79e 	.word	0xf79ef79e
    3004:	f79ef79e 	.word	0xf79ef79e
    3008:	f79ef79e 	.word	0xf79ef79e
    300c:	f79ef79e 	.word	0xf79ef79e
    3010:	f79ef79e 	.word	0xf79ef79e
    3014:	f79ef79e 	.word	0xf79ef79e
    3018:	f79ef79e 	.word	0xf79ef79e
    301c:	f79ef79e 	.word	0xf79ef79e
    3020:	f79ef79e 	.word	0xf79ef79e
    3024:	f79ef79e 	.word	0xf79ef79e
    3028:	f79ef79e 	.word	0xf79ef79e
    302c:	f79ef79e 	.word	0xf79ef79e
    3030:	f79ef79e 	.word	0xf79ef79e
    3034:	f79ef79e 	.word	0xf79ef79e
    3038:	f79ef79e 	.word	0xf79ef79e
    303c:	f79ef79e 	.word	0xf79ef79e
    3040:	f79ef79e 	.word	0xf79ef79e
    3044:	f79ef79e 	.word	0xf79ef79e
    3048:	f79ef79e 	.word	0xf79ef79e
    304c:	f79ef79e 	.word	0xf79ef79e
    3050:	f79ef79e 	.word	0xf79ef79e
    3054:	f79eff9e 	.word	0xf79eff9e
    3058:	f79ef79e 	.word	0xf79ef79e
    305c:	f79ef79e 	.word	0xf79ef79e
    3060:	f79df79e 	.word	0xf79df79e
    3064:	f79df79d 	.word	0xf79df79d
    3068:	f79ef79d 	.word	0xf79ef79d
    306c:	e77ef7df 	.word	0xe77ef7df
    3070:	be7cc67b 	.word	0xbe7cc67b
    3074:	b65cb65c 	.word	0xb65cb65c
    3078:	b67db65d 	.word	0xb67db65d
    307c:	b67db67d 	.word	0xb67db67d
    3080:	b67db67d 	.word	0xb67db67d
    3084:	be7dbe7d 	.word	0xbe7dbe7d
    3088:	be7dbe7d 	.word	0xbe7dbe7d
    308c:	be7dbe7d 	.word	0xbe7dbe7d
    3090:	be9dbe9d 	.word	0xbe9dbe9d
    3094:	be9dbe9d 	.word	0xbe9dbe9d
    3098:	be9dbe9d 	.word	0xbe9dbe9d
    309c:	be9dbe9d 	.word	0xbe9dbe9d
    30a0:	be9dbe9d 	.word	0xbe9dbe9d
    30a4:	be9dbe9d 	.word	0xbe9dbe9d
    30a8:	be9dbe9d 	.word	0xbe9dbe9d
    30ac:	be9dbe9d 	.word	0xbe9dbe9d
    30b0:	be9dbe9d 	.word	0xbe9dbe9d
    30b4:	be9dbe9d 	.word	0xbe9dbe9d
    30b8:	be9dbe9d 	.word	0xbe9dbe9d
    30bc:	be9dbe9d 	.word	0xbe9dbe9d
    30c0:	be9dbe9d 	.word	0xbe9dbe9d
    30c4:	be9dbe9d 	.word	0xbe9dbe9d
    30c8:	be9dbe9d 	.word	0xbe9dbe9d
    30cc:	be9dbe9d 	.word	0xbe9dbe9d
    30d0:	be9dbe9d 	.word	0xbe9dbe9d
    30d4:	be9dbe9d 	.word	0xbe9dbe9d
    30d8:	be9dbe9d 	.word	0xbe9dbe9d
    30dc:	be9dbe9d 	.word	0xbe9dbe9d
    30e0:	be9dbe9d 	.word	0xbe9dbe9d
    30e4:	be9dbe9d 	.word	0xbe9dbe9d
    30e8:	be9dbe9d 	.word	0xbe9dbe9d
    30ec:	be9dbe9d 	.word	0xbe9dbe9d
    30f0:	be9dbe9d 	.word	0xbe9dbe9d
    30f4:	be9dbe9d 	.word	0xbe9dbe9d
    30f8:	be9dbe9d 	.word	0xbe9dbe9d
    30fc:	be9dbe9d 	.word	0xbe9dbe9d
    3100:	be9dbe9d 	.word	0xbe9dbe9d
    3104:	be9dbe7d 	.word	0xbe9dbe7d
    3108:	cedec6bd 	.word	0xcedec6bd
    310c:	cefecefe 	.word	0xcefecefe
    3110:	cedecefe 	.word	0xcedecefe
    3114:	cefdcede 	.word	0xcefdcede
    3118:	cefecefd 	.word	0xcefecefd
    311c:	cefdcefd 	.word	0xcefdcefd
    3120:	cefdcefd 	.word	0xcefdcefd
    3124:	cefecedd 	.word	0xcefecedd
    3128:	c6bdcede 	.word	0xc6bdcede
    312c:	be9cbe9c 	.word	0xbe9cbe9c
    3130:	be9dbe9d 	.word	0xbe9dbe9d
    3134:	be9dbe9d 	.word	0xbe9dbe9d
    3138:	be9dbe9d 	.word	0xbe9dbe9d
    313c:	be9dbe9d 	.word	0xbe9dbe9d
    3140:	be9dbe9d 	.word	0xbe9dbe9d
    3144:	be9dbe9d 	.word	0xbe9dbe9d
    3148:	be9dbe9d 	.word	0xbe9dbe9d
    314c:	be9dbe9d 	.word	0xbe9dbe9d
    3150:	be9dbe9d 	.word	0xbe9dbe9d
    3154:	be9dbe9d 	.word	0xbe9dbe9d
    3158:	be9dbe9d 	.word	0xbe9dbe9d
    315c:	be9dbe9d 	.word	0xbe9dbe9d
    3160:	be9dbe9d 	.word	0xbe9dbe9d
    3164:	be9dbe9d 	.word	0xbe9dbe9d
    3168:	be9dbe9d 	.word	0xbe9dbe9d
    316c:	be9dbe9d 	.word	0xbe9dbe9d
    3170:	be9dbe9d 	.word	0xbe9dbe9d
    3174:	be9dbe9d 	.word	0xbe9dbe9d
    3178:	be9dbe9d 	.word	0xbe9dbe9d
    317c:	be9dbe9d 	.word	0xbe9dbe9d
    3180:	be9dbe9d 	.word	0xbe9dbe9d
    3184:	be9dbe9d 	.word	0xbe9dbe9d
    3188:	be9dbe9d 	.word	0xbe9dbe9d
    318c:	c69dc69d 	.word	0xc69dc69d
    3190:	9d57c69d 	.word	0x9d57c69d
    3194:	ffbedeba 	.word	0xffbedeba
    3198:	f79ef79e 	.word	0xf79ef79e
    319c:	f79ef79e 	.word	0xf79ef79e
    31a0:	f79ef79e 	.word	0xf79ef79e
    31a4:	f79ef7be 	.word	0xf79ef7be
    31a8:	f7bef79e 	.word	0xf7bef79e
    31ac:	ef7ef79e 	.word	0xef7ef79e
    31b0:	e73eef5e 	.word	0xe73eef5e
    31b4:	e73ee73e 	.word	0xe73ee73e
    31b8:	e75ee75e 	.word	0xe75ee75e
    31bc:	e77fe77f 	.word	0xe77fe77f
    31c0:	e77ee77e 	.word	0xe77ee77e
    31c4:	ef7eef7e 	.word	0xef7eef7e
    31c8:	ef9fef7e 	.word	0xef9fef7e
    31cc:	ef9fef7f 	.word	0xef9fef7f
    31d0:	ef9fef9f 	.word	0xef9fef9f
    31d4:	f7bfef9f 	.word	0xf7bfef9f
    31d8:	ef9ef79f 	.word	0xef9ef79f
    31dc:	f79ff79f 	.word	0xf79ff79f
    31e0:	ef5def7e 	.word	0xef5def7e
    31e4:	f79fffdf 	.word	0xf79fffdf
    31e8:	ffdff7bf 	.word	0xffdff7bf
    31ec:	f7bfffbf 	.word	0xf7bfffbf
    31f0:	ffbfffbf 	.word	0xffbfffbf
    31f4:	ffbfffbf 	.word	0xffbfffbf
    31f8:	ffbfffbf 	.word	0xffbfffbf
    31fc:	ffbfffbf 	.word	0xffbfffbf
    3200:	ffbfffbf 	.word	0xffbfffbf
    3204:	ffbfffbf 	.word	0xffbfffbf
    3208:	ffbfffbf 	.word	0xffbfffbf
    320c:	ffdfffbe 	.word	0xffdfffbe
    3210:	ffbeffbe 	.word	0xffbeffbe
    3214:	ffbeffbe 	.word	0xffbeffbe
    3218:	f79ef7be 	.word	0xf79ef7be
    321c:	f79ef79e 	.word	0xf79ef79e
    3220:	f7bef79e 	.word	0xf7bef79e
    3224:	f79ef79e 	.word	0xf79ef79e
    3228:	f79ef79e 	.word	0xf79ef79e
    322c:	f79ef79e 	.word	0xf79ef79e
    3230:	f79ef79e 	.word	0xf79ef79e
    3234:	f79ef79e 	.word	0xf79ef79e
    3238:	f79ef79e 	.word	0xf79ef79e
    323c:	f79ef79e 	.word	0xf79ef79e
    3240:	f79ef79e 	.word	0xf79ef79e
    3244:	f79ef79e 	.word	0xf79ef79e
    3248:	f79ef79e 	.word	0xf79ef79e
    324c:	f79ef79e 	.word	0xf79ef79e
    3250:	f79ef79e 	.word	0xf79ef79e
    3254:	f79ef79e 	.word	0xf79ef79e
    3258:	f79ef79e 	.word	0xf79ef79e
    325c:	f79ef79e 	.word	0xf79ef79e
    3260:	f79ef79e 	.word	0xf79ef79e
    3264:	f79ef79e 	.word	0xf79ef79e
    3268:	f79ef79e 	.word	0xf79ef79e
    326c:	f79ef79e 	.word	0xf79ef79e
    3270:	f79ef79e 	.word	0xf79ef79e
    3274:	f79ef79e 	.word	0xf79ef79e
    3278:	f79ef79e 	.word	0xf79ef79e
    327c:	f79ef79e 	.word	0xf79ef79e
    3280:	f79ef79e 	.word	0xf79ef79e
    3284:	f79ef79e 	.word	0xf79ef79e
    3288:	f79ef79e 	.word	0xf79ef79e
    328c:	f79ef79e 	.word	0xf79ef79e
    3290:	f79ef79e 	.word	0xf79ef79e
    3294:	f79ef79e 	.word	0xf79ef79e
    3298:	f79ef79e 	.word	0xf79ef79e
    329c:	f79ef79e 	.word	0xf79ef79e
    32a0:	f79ef79e 	.word	0xf79ef79e
    32a4:	f79ef79e 	.word	0xf79ef79e
    32a8:	f79ef79e 	.word	0xf79ef79e
    32ac:	f79ef79e 	.word	0xf79ef79e
    32b0:	f79ef79e 	.word	0xf79ef79e
    32b4:	f79ef79e 	.word	0xf79ef79e
    32b8:	f79ef79e 	.word	0xf79ef79e
    32bc:	f79ef79e 	.word	0xf79ef79e
    32c0:	f79ef79e 	.word	0xf79ef79e
    32c4:	f79ef79e 	.word	0xf79ef79e
    32c8:	f79ef79e 	.word	0xf79ef79e
    32cc:	f79ef79e 	.word	0xf79ef79e
    32d0:	f79ef79e 	.word	0xf79ef79e
    32d4:	ff9eff9e 	.word	0xff9eff9e
    32d8:	f79eff9e 	.word	0xf79eff9e
    32dc:	f7bef79e 	.word	0xf7bef79e
    32e0:	f79df7be 	.word	0xf79df7be
    32e4:	f79df79d 	.word	0xf79df79d
    32e8:	f7bef79d 	.word	0xf7bef79d
    32ec:	df5ef7bf 	.word	0xdf5ef7bf
    32f0:	b65bc67b 	.word	0xb65bc67b
    32f4:	b67cb67c 	.word	0xb67cb67c
    32f8:	b67db67d 	.word	0xb67db67d
    32fc:	be9dbe7d 	.word	0xbe9dbe7d
    3300:	be9dbe9d 	.word	0xbe9dbe9d
    3304:	be9dbe9d 	.word	0xbe9dbe9d
    3308:	be9dbe9d 	.word	0xbe9dbe9d
    330c:	be9dbe9d 	.word	0xbe9dbe9d
    3310:	be9dbe9d 	.word	0xbe9dbe9d
    3314:	be9dbe9d 	.word	0xbe9dbe9d
    3318:	be9dbe9d 	.word	0xbe9dbe9d
    331c:	be9dbe9d 	.word	0xbe9dbe9d
    3320:	be9dbe9d 	.word	0xbe9dbe9d
    3324:	be9dbe9d 	.word	0xbe9dbe9d
    3328:	be9dbe9d 	.word	0xbe9dbe9d
    332c:	be9dbe9d 	.word	0xbe9dbe9d
    3330:	be9dbe9d 	.word	0xbe9dbe9d
    3334:	be9dbe9d 	.word	0xbe9dbe9d
    3338:	be9dbe9d 	.word	0xbe9dbe9d
    333c:	be9dbe9d 	.word	0xbe9dbe9d
    3340:	be9dbe9d 	.word	0xbe9dbe9d
    3344:	be9dbe9d 	.word	0xbe9dbe9d
    3348:	be9dbe9d 	.word	0xbe9dbe9d
    334c:	be9dbe9d 	.word	0xbe9dbe9d
    3350:	be9dbe9d 	.word	0xbe9dbe9d
    3354:	be9dbe9d 	.word	0xbe9dbe9d
    3358:	be9dbe9d 	.word	0xbe9dbe9d
    335c:	be9dbe9d 	.word	0xbe9dbe9d
    3360:	be9dbe9d 	.word	0xbe9dbe9d
    3364:	be9dbe9d 	.word	0xbe9dbe9d
    3368:	be9dbe9d 	.word	0xbe9dbe9d
    336c:	be9dbe9d 	.word	0xbe9dbe9d
    3370:	be9dbe9d 	.word	0xbe9dbe9d
    3374:	be9dbe9d 	.word	0xbe9dbe9d
    3378:	be9dbe9d 	.word	0xbe9dbe9d
    337c:	be9dbe9d 	.word	0xbe9dbe9d
    3380:	be9dbe9d 	.word	0xbe9dbe9d
    3384:	c6ddc6bd 	.word	0xc6ddc6bd
    3388:	cefecefe 	.word	0xcefecefe
    338c:	cefecefe 	.word	0xcefecefe
    3390:	cefecefe 	.word	0xcefecefe
    3394:	cefecefe 	.word	0xcefecefe
    3398:	cefecefd 	.word	0xcefecefd
    339c:	ceddcefd 	.word	0xceddcefd
    33a0:	d6fecedd 	.word	0xd6fecedd
    33a4:	cefecedd 	.word	0xcefecedd
    33a8:	cedecefe 	.word	0xcedecefe
    33ac:	c69dc6bd 	.word	0xc69dc6bd
    33b0:	be9dbe9d 	.word	0xbe9dbe9d
    33b4:	be9dbe9d 	.word	0xbe9dbe9d
    33b8:	be9dbe9d 	.word	0xbe9dbe9d
    33bc:	be9dbe9d 	.word	0xbe9dbe9d
    33c0:	be9dbe9d 	.word	0xbe9dbe9d
    33c4:	be9dbe9d 	.word	0xbe9dbe9d
    33c8:	be9dbe9d 	.word	0xbe9dbe9d
    33cc:	be9dbe9d 	.word	0xbe9dbe9d
    33d0:	be9dbe9d 	.word	0xbe9dbe9d
    33d4:	be9dbe9d 	.word	0xbe9dbe9d
    33d8:	be9dbe9d 	.word	0xbe9dbe9d
    33dc:	be9dbe9d 	.word	0xbe9dbe9d
    33e0:	be9dbe9d 	.word	0xbe9dbe9d
    33e4:	be9dbe9d 	.word	0xbe9dbe9d
    33e8:	be9dbe9d 	.word	0xbe9dbe9d
    33ec:	be9dbe9d 	.word	0xbe9dbe9d
    33f0:	be9dbe9d 	.word	0xbe9dbe9d
    33f4:	be9dbe9d 	.word	0xbe9dbe9d
    33f8:	be9dbe9d 	.word	0xbe9dbe9d
    33fc:	be9dbe9d 	.word	0xbe9dbe9d
    3400:	be9dbe9d 	.word	0xbe9dbe9d
    3404:	be9dc6bd 	.word	0xbe9dc6bd
    3408:	be9cbe7c 	.word	0xbe9cbe7c
    340c:	c69cc69c 	.word	0xc69cc69c
    3410:	9d57cebd 	.word	0x9d57cebd
    3414:	ffbedeba 	.word	0xffbedeba
    3418:	f79ef79e 	.word	0xf79ef79e
    341c:	f79ef79e 	.word	0xf79ef79e
    3420:	f79ef79e 	.word	0xf79ef79e
    3424:	f79ef79e 	.word	0xf79ef79e
    3428:	f7bff7be 	.word	0xf7bff7be
    342c:	e73def9e 	.word	0xe73def9e
    3430:	e73ee71d 	.word	0xe73ee71d
    3434:	e73ee73e 	.word	0xe73ee73e
    3438:	e75fe75e 	.word	0xe75fe75e
    343c:	e75ee75e 	.word	0xe75ee75e
    3440:	e75ee75e 	.word	0xe75ee75e
    3444:	ef7eef5e 	.word	0xef7eef5e
    3448:	ef9fef7e 	.word	0xef9fef7e
    344c:	ef7fef7f 	.word	0xef7fef7f
    3450:	ef7fef7f 	.word	0xef7fef7f
    3454:	ef7ef79f 	.word	0xef7ef79f
    3458:	f7bfef7e 	.word	0xf7bfef7e
    345c:	ef5ef7bf 	.word	0xef5ef7bf
    3460:	f79fef3d 	.word	0xf79fef3d
    3464:	f7bff7bf 	.word	0xf7bff7bf
    3468:	f79ff7bf 	.word	0xf79ff7bf
    346c:	ffbfffbf 	.word	0xffbfffbf
    3470:	f7bfffbf 	.word	0xf7bfffbf
    3474:	ffbfffbf 	.word	0xffbfffbf
    3478:	ffbfffbf 	.word	0xffbfffbf
    347c:	ffbfffbf 	.word	0xffbfffbf
    3480:	ffbfffbf 	.word	0xffbfffbf
    3484:	ffbfffbf 	.word	0xffbfffbf
    3488:	ffdfffdf 	.word	0xffdfffdf
    348c:	ffbeffbe 	.word	0xffbeffbe
    3490:	ffbeffbe 	.word	0xffbeffbe
    3494:	ffbeffdf 	.word	0xffbeffdf
    3498:	f79ef7be 	.word	0xf79ef7be
    349c:	f79ef79e 	.word	0xf79ef79e
    34a0:	f79ef79e 	.word	0xf79ef79e
    34a4:	f79ef79e 	.word	0xf79ef79e
    34a8:	f79ef79e 	.word	0xf79ef79e
    34ac:	f79ef79e 	.word	0xf79ef79e
    34b0:	f79ef79e 	.word	0xf79ef79e
    34b4:	f79ef79e 	.word	0xf79ef79e
    34b8:	f79ef79e 	.word	0xf79ef79e
    34bc:	f79ef79e 	.word	0xf79ef79e
    34c0:	f79ef79e 	.word	0xf79ef79e
    34c4:	f79ef79e 	.word	0xf79ef79e
    34c8:	f79ef79e 	.word	0xf79ef79e
    34cc:	f79ef79e 	.word	0xf79ef79e
    34d0:	f79ef79e 	.word	0xf79ef79e
    34d4:	f79ef79e 	.word	0xf79ef79e
    34d8:	f79ef79e 	.word	0xf79ef79e
    34dc:	f79ef79e 	.word	0xf79ef79e
    34e0:	f79ef79e 	.word	0xf79ef79e
    34e4:	f79ef79e 	.word	0xf79ef79e
    34e8:	f79ef79e 	.word	0xf79ef79e
    34ec:	f79ef79e 	.word	0xf79ef79e
    34f0:	f79ef79e 	.word	0xf79ef79e
    34f4:	f79ef79e 	.word	0xf79ef79e
    34f8:	f79ef79e 	.word	0xf79ef79e
    34fc:	f79ef79e 	.word	0xf79ef79e
    3500:	f79ef79e 	.word	0xf79ef79e
    3504:	f79ef79e 	.word	0xf79ef79e
    3508:	f79ef79e 	.word	0xf79ef79e
    350c:	f79ef79e 	.word	0xf79ef79e
    3510:	f79ef79e 	.word	0xf79ef79e
    3514:	f79ef79e 	.word	0xf79ef79e
    3518:	f79ef79e 	.word	0xf79ef79e
    351c:	f79ef79e 	.word	0xf79ef79e
    3520:	f79ef79e 	.word	0xf79ef79e
    3524:	f79ef79e 	.word	0xf79ef79e
    3528:	f79ef79e 	.word	0xf79ef79e
    352c:	f79ef79e 	.word	0xf79ef79e
    3530:	f79ef79e 	.word	0xf79ef79e
    3534:	f79ef79e 	.word	0xf79ef79e
    3538:	f79ef79e 	.word	0xf79ef79e
    353c:	f79ef79e 	.word	0xf79ef79e
    3540:	f79ef79e 	.word	0xf79ef79e
    3544:	f79ef79e 	.word	0xf79ef79e
    3548:	f79ef79e 	.word	0xf79ef79e
    354c:	f79ef79e 	.word	0xf79ef79e
    3550:	f79ef79e 	.word	0xf79ef79e
    3554:	ff9eff9e 	.word	0xff9eff9e
    3558:	f79eff9e 	.word	0xf79eff9e
    355c:	f7bef79e 	.word	0xf7bef79e
    3560:	f79ef7be 	.word	0xf79ef7be
    3564:	f7bdf79d 	.word	0xf7bdf79d
    3568:	f7beef7d 	.word	0xf7beef7d
    356c:	df5ef7df 	.word	0xdf5ef7df
    3570:	b65bc69c 	.word	0xb65bc69c
    3574:	b67cb67c 	.word	0xb67cb67c
    3578:	b67cb67c 	.word	0xb67cb67c
    357c:	be9dbe7d 	.word	0xbe9dbe7d
    3580:	be9dbe9d 	.word	0xbe9dbe9d
    3584:	bebdbe9d 	.word	0xbebdbe9d
    3588:	c6bdbe9d 	.word	0xc6bdbe9d
    358c:	be9dbe9d 	.word	0xbe9dbe9d
    3590:	be9dbe9d 	.word	0xbe9dbe9d
    3594:	c6bdc69d 	.word	0xc6bdc69d
    3598:	c6bdc69d 	.word	0xc6bdc69d
    359c:	c6bdc69d 	.word	0xc6bdc69d
    35a0:	c6bdc6bd 	.word	0xc6bdc6bd
    35a4:	c6bdc69d 	.word	0xc6bdc69d
    35a8:	c6bdc69d 	.word	0xc6bdc69d
    35ac:	c6bdc69d 	.word	0xc6bdc69d
    35b0:	c69dc69d 	.word	0xc69dc69d
    35b4:	c69dc69d 	.word	0xc69dc69d
    35b8:	c69dc69d 	.word	0xc69dc69d
    35bc:	c69dc69d 	.word	0xc69dc69d
    35c0:	c69dc69d 	.word	0xc69dc69d
    35c4:	c69dc69d 	.word	0xc69dc69d
    35c8:	c69dc69d 	.word	0xc69dc69d
    35cc:	c69dc69d 	.word	0xc69dc69d
    35d0:	c69dc69d 	.word	0xc69dc69d
    35d4:	c69dc69d 	.word	0xc69dc69d
    35d8:	c69dc69d 	.word	0xc69dc69d
    35dc:	c69dc69d 	.word	0xc69dc69d
    35e0:	c69dc69d 	.word	0xc69dc69d
    35e4:	c69dc69d 	.word	0xc69dc69d
    35e8:	c69dc69d 	.word	0xc69dc69d
    35ec:	c69dc69d 	.word	0xc69dc69d
    35f0:	c6bdc69d 	.word	0xc6bdc69d
    35f4:	c6bdc6bd 	.word	0xc6bdc6bd
    35f8:	c6bdc6bd 	.word	0xc6bdc6bd
    35fc:	c6bdc6bd 	.word	0xc6bdc6bd
    3600:	c6bdc6bd 	.word	0xc6bdc6bd
    3604:	cefecefe 	.word	0xcefecefe
    3608:	cefecefe 	.word	0xcefecefe
    360c:	cefecefe 	.word	0xcefecefe
    3610:	cefecefe 	.word	0xcefecefe
    3614:	cefecf1e 	.word	0xcefecf1e
    3618:	cefecefd 	.word	0xcefecefd
    361c:	c6bccedd 	.word	0xc6bccedd
    3620:	d6fecedd 	.word	0xd6fecedd
    3624:	cefecefe 	.word	0xcefecefe
    3628:	d71ecefe 	.word	0xd71ecefe
    362c:	c6decefe 	.word	0xc6decefe
    3630:	c69dc6bd 	.word	0xc69dc6bd
    3634:	c69dc69d 	.word	0xc69dc69d
    3638:	c69dc69d 	.word	0xc69dc69d
    363c:	c69dc69d 	.word	0xc69dc69d
    3640:	c69dc69d 	.word	0xc69dc69d
    3644:	c69dc69d 	.word	0xc69dc69d
    3648:	c69dc69d 	.word	0xc69dc69d
    364c:	c6bdc69d 	.word	0xc6bdc69d
    3650:	c6bdc69d 	.word	0xc6bdc69d
    3654:	c6bdc69d 	.word	0xc6bdc69d
    3658:	c6bdc69d 	.word	0xc6bdc69d
    365c:	c6bdc69d 	.word	0xc6bdc69d
    3660:	c6bdc69d 	.word	0xc6bdc69d
    3664:	c6bdc69d 	.word	0xc6bdc69d
    3668:	c6bdc69d 	.word	0xc6bdc69d
    366c:	c6bdc69d 	.word	0xc6bdc69d
    3670:	c6bdc69d 	.word	0xc6bdc69d
    3674:	c6bdc6bd 	.word	0xc6bdc6bd
    3678:	c6bdc6bd 	.word	0xc6bdc6bd
    367c:	bebdc6bd 	.word	0xbebdc6bd
    3680:	bebdbebd 	.word	0xbebdbebd
    3684:	c6bdbe9d 	.word	0xc6bdbe9d
    3688:	c6bdc69d 	.word	0xc6bdc69d
    368c:	c69cc6bc 	.word	0xc69cc6bc
    3690:	9d57cedd 	.word	0x9d57cedd
    3694:	ffbedeba 	.word	0xffbedeba
    3698:	ff9ef79e 	.word	0xff9ef79e
    369c:	ff9eff9e 	.word	0xff9eff9e
    36a0:	ffbef79e 	.word	0xffbef79e
    36a4:	f79ef79e 	.word	0xf79ef79e
    36a8:	ef7ef7bf 	.word	0xef7ef7bf
    36ac:	df1edf1d 	.word	0xdf1edf1d
    36b0:	df1ee73e 	.word	0xdf1ee73e
    36b4:	d6dde73e 	.word	0xd6dde73e
    36b8:	e75fd6bc 	.word	0xe75fd6bc
    36bc:	ef7fe75f 	.word	0xef7fe75f
    36c0:	e77fe75e 	.word	0xe77fe75e
    36c4:	ef7fe75e 	.word	0xef7fe75e
    36c8:	ef7ee77e 	.word	0xef7ee77e
    36cc:	ef7fef7f 	.word	0xef7fef7f
    36d0:	ef9fef7f 	.word	0xef9fef7f
    36d4:	e73df79f 	.word	0xe73df79f
    36d8:	ef3edebc 	.word	0xef3edebc
    36dc:	e73def5d 	.word	0xe73def5d
    36e0:	f79ff7bf 	.word	0xf79ff7bf
    36e4:	f79ff79f 	.word	0xf79ff79f
    36e8:	ffbff79f 	.word	0xffbff79f
    36ec:	ffbfffbf 	.word	0xffbfffbf
    36f0:	ffbfffbf 	.word	0xffbfffbf
    36f4:	f79effdf 	.word	0xf79effdf
    36f8:	ffdfffbf 	.word	0xffdfffbf
    36fc:	ffbfffbe 	.word	0xffbfffbe
    3700:	ffbfffdf 	.word	0xffbfffdf
    3704:	ffbfffbf 	.word	0xffbfffbf
    3708:	ffdfffdf 	.word	0xffdfffdf
    370c:	ffdef7be 	.word	0xffdef7be
    3710:	f7beffdf 	.word	0xf7beffdf
    3714:	ffbfffdf 	.word	0xffbfffdf
    3718:	ffdfffdf 	.word	0xffdfffdf
    371c:	f77ef79e 	.word	0xf77ef79e
    3720:	f79ef79e 	.word	0xf79ef79e
    3724:	f7bef79e 	.word	0xf7bef79e
    3728:	f79ef79e 	.word	0xf79ef79e
    372c:	ff9eff9e 	.word	0xff9eff9e
    3730:	f79eff9e 	.word	0xf79eff9e
    3734:	f79ef79e 	.word	0xf79ef79e
    3738:	f79ef79e 	.word	0xf79ef79e
    373c:	f79ef79e 	.word	0xf79ef79e
    3740:	f79ef79e 	.word	0xf79ef79e
    3744:	f79ef79e 	.word	0xf79ef79e
    3748:	f79ef79e 	.word	0xf79ef79e
    374c:	f79ef79e 	.word	0xf79ef79e
    3750:	f79ef79e 	.word	0xf79ef79e
    3754:	f79ef79e 	.word	0xf79ef79e
    3758:	f79ef79e 	.word	0xf79ef79e
    375c:	f79ef79e 	.word	0xf79ef79e
    3760:	f79ef79e 	.word	0xf79ef79e
    3764:	f79ef79e 	.word	0xf79ef79e
    3768:	f79ef79e 	.word	0xf79ef79e
    376c:	f79ef79e 	.word	0xf79ef79e
    3770:	f79ef79e 	.word	0xf79ef79e
    3774:	f79ef79e 	.word	0xf79ef79e
    3778:	f79ef79e 	.word	0xf79ef79e
    377c:	f79ef79e 	.word	0xf79ef79e
    3780:	f79ef79e 	.word	0xf79ef79e
    3784:	f79ef79e 	.word	0xf79ef79e
    3788:	f79ef79e 	.word	0xf79ef79e
    378c:	f79ef79e 	.word	0xf79ef79e
    3790:	f79ef79e 	.word	0xf79ef79e
    3794:	f79ef79e 	.word	0xf79ef79e
    3798:	f79ef79e 	.word	0xf79ef79e
    379c:	f79ef79e 	.word	0xf79ef79e
    37a0:	f79ef79e 	.word	0xf79ef79e
    37a4:	f79ef79e 	.word	0xf79ef79e
    37a8:	f79ef79e 	.word	0xf79ef79e
    37ac:	f79ef79e 	.word	0xf79ef79e
    37b0:	f79ef79e 	.word	0xf79ef79e
    37b4:	f79ef79e 	.word	0xf79ef79e
    37b8:	f79ef79e 	.word	0xf79ef79e
    37bc:	f79ef79e 	.word	0xf79ef79e
    37c0:	f79ef79e 	.word	0xf79ef79e
    37c4:	f79ef79e 	.word	0xf79ef79e
    37c8:	f79ef79e 	.word	0xf79ef79e
    37cc:	f79ef79e 	.word	0xf79ef79e
    37d0:	f79ef79e 	.word	0xf79ef79e
    37d4:	ff9eff9e 	.word	0xff9eff9e
    37d8:	f79ef79e 	.word	0xf79ef79e
    37dc:	f7bef7be 	.word	0xf7bef7be
    37e0:	f79df79e 	.word	0xf79df79e
    37e4:	f79df77d 	.word	0xf79df77d
    37e8:	f7bef79d 	.word	0xf7bef79d
    37ec:	e77ef7df 	.word	0xe77ef7df
    37f0:	be5bbe7b 	.word	0xbe5bbe7b
    37f4:	be9dbe7c 	.word	0xbe9dbe7c
    37f8:	be9dbe9d 	.word	0xbe9dbe9d
    37fc:	bebdbe9d 	.word	0xbebdbe9d
    3800:	bebdbebd 	.word	0xbebdbebd
    3804:	c6bdc6bd 	.word	0xc6bdc6bd
    3808:	c6bdc6bd 	.word	0xc6bdc6bd
    380c:	c6bdc6bd 	.word	0xc6bdc6bd
    3810:	c6bdc6bd 	.word	0xc6bdc6bd
    3814:	c6bdc6bd 	.word	0xc6bdc6bd
    3818:	c6bdc6bd 	.word	0xc6bdc6bd
    381c:	c6bdc6bd 	.word	0xc6bdc6bd
    3820:	c6bdc6bd 	.word	0xc6bdc6bd
    3824:	c6bdc6bd 	.word	0xc6bdc6bd
    3828:	c6bdc6bd 	.word	0xc6bdc6bd
    382c:	c6bdc6bd 	.word	0xc6bdc6bd
    3830:	c6bdc6bd 	.word	0xc6bdc6bd
    3834:	c6bdc6bd 	.word	0xc6bdc6bd
    3838:	c6bdc6bd 	.word	0xc6bdc6bd
    383c:	c6bdc6bd 	.word	0xc6bdc6bd
    3840:	c6bdc6bd 	.word	0xc6bdc6bd
    3844:	c6bdc6bd 	.word	0xc6bdc6bd
    3848:	c6bdc6bd 	.word	0xc6bdc6bd
    384c:	c6bdc6bd 	.word	0xc6bdc6bd
    3850:	c6bdc6bd 	.word	0xc6bdc6bd
    3854:	c6bdc6bd 	.word	0xc6bdc6bd
    3858:	c6bdc6bd 	.word	0xc6bdc6bd
    385c:	c6bdc6bd 	.word	0xc6bdc6bd
    3860:	c6bdc6bd 	.word	0xc6bdc6bd
    3864:	c6bdc6bd 	.word	0xc6bdc6bd
    3868:	c6bdc6bd 	.word	0xc6bdc6bd
    386c:	c6bdc6bd 	.word	0xc6bdc6bd
    3870:	c6bdc6bd 	.word	0xc6bdc6bd
    3874:	c6bdc6bd 	.word	0xc6bdc6bd
    3878:	c6bdc6bd 	.word	0xc6bdc6bd
    387c:	c6bdc69d 	.word	0xc6bdc69d
    3880:	d71ecefe 	.word	0xd71ecefe
    3884:	d6fecefe 	.word	0xd6fecefe
    3888:	cefed6fe 	.word	0xcefed6fe
    388c:	d71ecefe 	.word	0xd71ecefe
    3890:	cefecefe 	.word	0xcefecefe
    3894:	d71ed6fe 	.word	0xd71ed6fe
    3898:	d6fed6fe 	.word	0xd6fed6fe
    389c:	c69cbe7c 	.word	0xc69cbe7c
    38a0:	d71ed71e 	.word	0xd71ed71e
    38a4:	d71ed71e 	.word	0xd71ed71e
    38a8:	cefed6fe 	.word	0xcefed6fe
    38ac:	d71ed6fe 	.word	0xd71ed6fe
    38b0:	c6bdcefd 	.word	0xc6bdcefd
    38b4:	c6bdc6bd 	.word	0xc6bdc6bd
    38b8:	c6bdc6bd 	.word	0xc6bdc6bd
    38bc:	c6bdc6bd 	.word	0xc6bdc6bd
    38c0:	c6bdc6bd 	.word	0xc6bdc6bd
    38c4:	c6bdc6bd 	.word	0xc6bdc6bd
    38c8:	c6bdc6bd 	.word	0xc6bdc6bd
    38cc:	c6bdc6bd 	.word	0xc6bdc6bd
    38d0:	c6bdc6bd 	.word	0xc6bdc6bd
    38d4:	c6bdc6bd 	.word	0xc6bdc6bd
    38d8:	c6bdc6bd 	.word	0xc6bdc6bd
    38dc:	c6bdc6bd 	.word	0xc6bdc6bd
    38e0:	c6bdc6bd 	.word	0xc6bdc6bd
    38e4:	c6bdc6bd 	.word	0xc6bdc6bd
    38e8:	c6bdc6bd 	.word	0xc6bdc6bd
    38ec:	c6bdc6bd 	.word	0xc6bdc6bd
    38f0:	c6bdc6bd 	.word	0xc6bdc6bd
    38f4:	c6bdc6bd 	.word	0xc6bdc6bd
    38f8:	c6bdc6bd 	.word	0xc6bdc6bd
    38fc:	c6bdc6bd 	.word	0xc6bdc6bd
    3900:	c6bdc6bd 	.word	0xc6bdc6bd
    3904:	c6bdc6bd 	.word	0xc6bdc6bd
    3908:	c6bdc6bd 	.word	0xc6bdc6bd
    390c:	c6bdc6bd 	.word	0xc6bdc6bd
    3910:	9d57cedd 	.word	0x9d57cedd
    3914:	ffdfde9a 	.word	0xffdfde9a
    3918:	ff9ef77d 	.word	0xff9ef77d
    391c:	f79eff9e 	.word	0xf79eff9e
    3920:	f79ef79e 	.word	0xf79ef79e
    3924:	f79effdf 	.word	0xf79effdf
    3928:	df1def5e 	.word	0xdf1def5e
    392c:	df3ed6fd 	.word	0xdf3ed6fd
    3930:	d6fee73f 	.word	0xd6fee73f
    3934:	df1ec63b 	.word	0xdf1ec63b
    3938:	ce9be75e 	.word	0xce9be75e
    393c:	e75ee73e 	.word	0xe75ee73e
    3940:	e75ee75f 	.word	0xe75ee75f
    3944:	e75ee77f 	.word	0xe75ee77f
    3948:	e75eef7f 	.word	0xe75eef7f
    394c:	ef7fef5e 	.word	0xef7fef5e
    3950:	ef7fef7f 	.word	0xef7fef7f
    3954:	f79fef7e 	.word	0xf79fef7e
    3958:	dedcef7e 	.word	0xdedcef7e
    395c:	f7bfef5e 	.word	0xf7bfef5e
    3960:	f79ff79f 	.word	0xf79ff79f
    3964:	f79ff79f 	.word	0xf79ff79f
    3968:	ffbfffbf 	.word	0xffbfffbf
    396c:	f79effbf 	.word	0xf79effbf
    3970:	f77ef77e 	.word	0xf77ef77e
    3974:	f75df75d 	.word	0xf75df75d
    3978:	ef3cf75d 	.word	0xef3cf75d
    397c:	ffdff77d 	.word	0xffdff77d
    3980:	ffbeffdf 	.word	0xffbeffdf
    3984:	ffbfffbf 	.word	0xffbfffbf
    3988:	ffbeffdf 	.word	0xffbeffdf
    398c:	ffdff7be 	.word	0xffdff7be
    3990:	f7beffdf 	.word	0xf7beffdf
    3994:	ffbfffdf 	.word	0xffbfffdf
    3998:	ffbfffdf 	.word	0xffbfffdf
    399c:	ffbff79e 	.word	0xffbff79e
    39a0:	f79effbe 	.word	0xf79effbe
    39a4:	f79ef79e 	.word	0xf79ef79e
    39a8:	f79ef79e 	.word	0xf79ef79e
    39ac:	ff9eff9e 	.word	0xff9eff9e
    39b0:	f79ef79e 	.word	0xf79ef79e
    39b4:	f79ef79e 	.word	0xf79ef79e
    39b8:	f79ef79e 	.word	0xf79ef79e
    39bc:	f79ef79e 	.word	0xf79ef79e
    39c0:	f79ef79e 	.word	0xf79ef79e
    39c4:	f79ef79e 	.word	0xf79ef79e
    39c8:	f79ef79e 	.word	0xf79ef79e
    39cc:	f79ef79e 	.word	0xf79ef79e
    39d0:	f79ef79e 	.word	0xf79ef79e
    39d4:	f79ef79e 	.word	0xf79ef79e
    39d8:	f79ef79e 	.word	0xf79ef79e
    39dc:	f79ef79e 	.word	0xf79ef79e
    39e0:	f79ef79e 	.word	0xf79ef79e
    39e4:	f79ef79e 	.word	0xf79ef79e
    39e8:	f79ef79e 	.word	0xf79ef79e
    39ec:	f79ef79e 	.word	0xf79ef79e
    39f0:	f79ef79e 	.word	0xf79ef79e
    39f4:	f79ef79e 	.word	0xf79ef79e
    39f8:	f79ef79e 	.word	0xf79ef79e
    39fc:	f79ef79e 	.word	0xf79ef79e
    3a00:	f79ef79e 	.word	0xf79ef79e
    3a04:	f79ef79e 	.word	0xf79ef79e
    3a08:	f79ef79e 	.word	0xf79ef79e
    3a0c:	f79ef79e 	.word	0xf79ef79e
    3a10:	f79ef79e 	.word	0xf79ef79e
    3a14:	f79ef79e 	.word	0xf79ef79e
    3a18:	f79ef79e 	.word	0xf79ef79e
    3a1c:	f79ef79e 	.word	0xf79ef79e
    3a20:	f79ef79e 	.word	0xf79ef79e
    3a24:	f79ef79e 	.word	0xf79ef79e
    3a28:	f79ef79e 	.word	0xf79ef79e
    3a2c:	f79ef79e 	.word	0xf79ef79e
    3a30:	f79ef79e 	.word	0xf79ef79e
    3a34:	f79ef79e 	.word	0xf79ef79e
    3a38:	f79ef79e 	.word	0xf79ef79e
    3a3c:	f79ef79e 	.word	0xf79ef79e
    3a40:	f79ef79e 	.word	0xf79ef79e
    3a44:	f79ef79e 	.word	0xf79ef79e
    3a48:	f79ef79e 	.word	0xf79ef79e
    3a4c:	f79ef79e 	.word	0xf79ef79e
    3a50:	f79ef79e 	.word	0xf79ef79e
    3a54:	ff9eff9e 	.word	0xff9eff9e
    3a58:	ff9ef79e 	.word	0xff9ef79e
    3a5c:	f7bef7be 	.word	0xf7bef7be
    3a60:	f79eff9e 	.word	0xf79eff9e
    3a64:	f79df77d 	.word	0xf79df77d
    3a68:	f79ef77d 	.word	0xf79ef77d
    3a6c:	e77ef7df 	.word	0xe77ef7df
    3a70:	be7bc67b 	.word	0xbe7bc67b
    3a74:	be9dbe7c 	.word	0xbe9dbe7c
    3a78:	be9dbe9d 	.word	0xbe9dbe9d
    3a7c:	bebdbebd 	.word	0xbebdbebd
    3a80:	bebdbebd 	.word	0xbebdbebd
    3a84:	c6bdc6bd 	.word	0xc6bdc6bd
    3a88:	c6bdc6bd 	.word	0xc6bdc6bd
    3a8c:	c6bdc6bd 	.word	0xc6bdc6bd
    3a90:	c6bdc6bd 	.word	0xc6bdc6bd
    3a94:	c6bdc6bd 	.word	0xc6bdc6bd
    3a98:	c6bdc6bd 	.word	0xc6bdc6bd
    3a9c:	c6bdc6bd 	.word	0xc6bdc6bd
    3aa0:	c6bdc6bd 	.word	0xc6bdc6bd
    3aa4:	c6bdc6bd 	.word	0xc6bdc6bd
    3aa8:	c6bdc6bd 	.word	0xc6bdc6bd
    3aac:	c6bdc6bd 	.word	0xc6bdc6bd
    3ab0:	c6bdc6bd 	.word	0xc6bdc6bd
    3ab4:	c6bdc6bd 	.word	0xc6bdc6bd
    3ab8:	c6bdc6bd 	.word	0xc6bdc6bd
    3abc:	c6bdc6bd 	.word	0xc6bdc6bd
    3ac0:	c6bdc6bd 	.word	0xc6bdc6bd
    3ac4:	c6bdc6bd 	.word	0xc6bdc6bd
    3ac8:	c6bdc6bd 	.word	0xc6bdc6bd
    3acc:	c6bdc6bd 	.word	0xc6bdc6bd
    3ad0:	c6bdc6bd 	.word	0xc6bdc6bd
    3ad4:	c6bdc6bd 	.word	0xc6bdc6bd
    3ad8:	c6bdc6bd 	.word	0xc6bdc6bd
    3adc:	c6bdc6bd 	.word	0xc6bdc6bd
    3ae0:	c6bdc6bd 	.word	0xc6bdc6bd
    3ae4:	c6bdc6bd 	.word	0xc6bdc6bd
    3ae8:	c6bdc6bd 	.word	0xc6bdc6bd
    3aec:	c6bdc6bd 	.word	0xc6bdc6bd
    3af0:	c6bdc6bd 	.word	0xc6bdc6bd
    3af4:	c6bdc6bd 	.word	0xc6bdc6bd
    3af8:	c6bdc69d 	.word	0xc6bdc69d
    3afc:	d71ecefe 	.word	0xd71ecefe
    3b00:	cefed6fe 	.word	0xcefed6fe
    3b04:	cefecefe 	.word	0xcefecefe
    3b08:	d71ecedd 	.word	0xd71ecedd
    3b0c:	cefdcefe 	.word	0xcefdcefe
    3b10:	d6fed6fe 	.word	0xd6fed6fe
    3b14:	d71ecefe 	.word	0xd71ecefe
    3b18:	b63bd71e 	.word	0xb63bd71e
    3b1c:	d71ecedd 	.word	0xd71ecedd
    3b20:	cefecefd 	.word	0xcefecefd
    3b24:	d6fecefe 	.word	0xd6fecefe
    3b28:	cefecefe 	.word	0xcefecefe
    3b2c:	d71ed6fe 	.word	0xd71ed6fe
    3b30:	ceddcefe 	.word	0xceddcefe
    3b34:	c6bdc6bd 	.word	0xc6bdc6bd
    3b38:	c6bdc6bd 	.word	0xc6bdc6bd
    3b3c:	c6bdc6bd 	.word	0xc6bdc6bd
    3b40:	c6bdc6bd 	.word	0xc6bdc6bd
    3b44:	c6bdc6bd 	.word	0xc6bdc6bd
    3b48:	c6bdc6bd 	.word	0xc6bdc6bd
    3b4c:	c6bdc6bd 	.word	0xc6bdc6bd
    3b50:	c6bdc6bd 	.word	0xc6bdc6bd
    3b54:	c6bdc6bd 	.word	0xc6bdc6bd
    3b58:	c6bdc6bd 	.word	0xc6bdc6bd
    3b5c:	c6bdc6bd 	.word	0xc6bdc6bd
    3b60:	c6bdc6bd 	.word	0xc6bdc6bd
    3b64:	c6bdc6bd 	.word	0xc6bdc6bd
    3b68:	c6bdc6bd 	.word	0xc6bdc6bd
    3b6c:	c6bdc6bd 	.word	0xc6bdc6bd
    3b70:	c6bdc6bd 	.word	0xc6bdc6bd
    3b74:	c6bdc6bd 	.word	0xc6bdc6bd
    3b78:	c6bdc6bd 	.word	0xc6bdc6bd
    3b7c:	c6bdc6bd 	.word	0xc6bdc6bd
    3b80:	c6bdc6bd 	.word	0xc6bdc6bd
    3b84:	c6bdc6bd 	.word	0xc6bdc6bd
    3b88:	c6bdc6bd 	.word	0xc6bdc6bd
    3b8c:	c6bcc6bd 	.word	0xc6bcc6bd
    3b90:	9d57cedd 	.word	0x9d57cedd
    3b94:	ffbedeba 	.word	0xffbedeba
    3b98:	ffbef79e 	.word	0xffbef79e
    3b9c:	f79ef79e 	.word	0xf79ef79e
    3ba0:	ffbff79e 	.word	0xffbff79e
    3ba4:	e73df7bf 	.word	0xe73df7bf
    3ba8:	defddefd 	.word	0xdefddefd
    3bac:	df1edf1e 	.word	0xdf1edf1e
    3bb0:	d6fddf1e 	.word	0xd6fddf1e
    3bb4:	df1edf1e 	.word	0xdf1edf1e
    3bb8:	e75fe75e 	.word	0xe75fe75e
    3bbc:	d6dcd6dd 	.word	0xd6dcd6dd
    3bc0:	e75ee75f 	.word	0xe75ee75f
    3bc4:	e75ee75e 	.word	0xe75ee75e
    3bc8:	ef7fe75e 	.word	0xef7fe75e
    3bcc:	e75eef7f 	.word	0xe75eef7f
    3bd0:	ef7ff79f 	.word	0xef7ff79f
    3bd4:	ffbfef7e 	.word	0xffbfef7e
    3bd8:	ef5ededc 	.word	0xef5ededc
    3bdc:	ef7ef79f 	.word	0xef7ef79f
    3be0:	f7bff7bf 	.word	0xf7bff7bf
    3be4:	f77ef79f 	.word	0xf77ef79f
    3be8:	ef3def5e 	.word	0xef3def5e
    3bec:	ef3def3d 	.word	0xef3def3d
    3bf0:	f79eef7e 	.word	0xf79eef7e
    3bf4:	ffdff79e 	.word	0xffdff79e
    3bf8:	ffbfffbf 	.word	0xffbfffbf
    3bfc:	e6fcf79e 	.word	0xe6fcf79e
    3c00:	ffdfef3d 	.word	0xffdfef3d
    3c04:	ffbeffbf 	.word	0xffbeffbf
    3c08:	ffbff7be 	.word	0xffbff7be
    3c0c:	ffdfffdf 	.word	0xffdfffdf
    3c10:	dedaef5d 	.word	0xdedaef5d
    3c14:	ffffef3d 	.word	0xffffef3d
    3c18:	ffdfffdf 	.word	0xffdfffdf
    3c1c:	f79effdf 	.word	0xf79effdf
    3c20:	f79effbf 	.word	0xf79effbf
    3c24:	f79ef79e 	.word	0xf79ef79e
    3c28:	f7bef79e 	.word	0xf7bef79e
    3c2c:	f7beffbe 	.word	0xf7beffbe
    3c30:	ff9eff9e 	.word	0xff9eff9e
    3c34:	f79ef79e 	.word	0xf79ef79e
    3c38:	f79ef79e 	.word	0xf79ef79e
    3c3c:	f79ef79e 	.word	0xf79ef79e
    3c40:	f79ef79e 	.word	0xf79ef79e
    3c44:	f79ef79e 	.word	0xf79ef79e
    3c48:	f79ef79e 	.word	0xf79ef79e
    3c4c:	f79ef79e 	.word	0xf79ef79e
    3c50:	f79ef79e 	.word	0xf79ef79e
    3c54:	f79ef79e 	.word	0xf79ef79e
    3c58:	f79ef79e 	.word	0xf79ef79e
    3c5c:	f79ef79e 	.word	0xf79ef79e
    3c60:	f79ef79e 	.word	0xf79ef79e
    3c64:	f79ef79e 	.word	0xf79ef79e
    3c68:	f79ef79e 	.word	0xf79ef79e
    3c6c:	f79ef79e 	.word	0xf79ef79e
    3c70:	f79ef79e 	.word	0xf79ef79e
    3c74:	f79ef79e 	.word	0xf79ef79e
    3c78:	f79ef79e 	.word	0xf79ef79e
    3c7c:	f79ef79e 	.word	0xf79ef79e
    3c80:	f79ef79e 	.word	0xf79ef79e
    3c84:	f79ef79e 	.word	0xf79ef79e
    3c88:	f79ef79e 	.word	0xf79ef79e
    3c8c:	f79ef79e 	.word	0xf79ef79e
    3c90:	f79ef79e 	.word	0xf79ef79e
    3c94:	f79ef79e 	.word	0xf79ef79e
    3c98:	f79ef79e 	.word	0xf79ef79e
    3c9c:	f79ef79e 	.word	0xf79ef79e
    3ca0:	f79ef79e 	.word	0xf79ef79e
    3ca4:	f79ef79e 	.word	0xf79ef79e
    3ca8:	f79ef79e 	.word	0xf79ef79e
    3cac:	f79ef79e 	.word	0xf79ef79e
    3cb0:	f79ef79e 	.word	0xf79ef79e
    3cb4:	f79ef79e 	.word	0xf79ef79e
    3cb8:	f79ef79e 	.word	0xf79ef79e
    3cbc:	f79ef79e 	.word	0xf79ef79e
    3cc0:	f79ef79e 	.word	0xf79ef79e
    3cc4:	f79ef79e 	.word	0xf79ef79e
    3cc8:	f79ef79e 	.word	0xf79ef79e
    3ccc:	f79ef79e 	.word	0xf79ef79e
    3cd0:	f79ef79e 	.word	0xf79ef79e
    3cd4:	ff9eff9e 	.word	0xff9eff9e
    3cd8:	ff9ef79e 	.word	0xff9ef79e
    3cdc:	f7bef7be 	.word	0xf7bef7be
    3ce0:	f79eff9e 	.word	0xf79eff9e
    3ce4:	f79df77d 	.word	0xf79df77d
    3ce8:	f79ef77d 	.word	0xf79ef77d
    3cec:	e77ef7df 	.word	0xe77ef7df
    3cf0:	be7bc67b 	.word	0xbe7bc67b
    3cf4:	be9dbe7c 	.word	0xbe9dbe7c
    3cf8:	be9dbe9d 	.word	0xbe9dbe9d
    3cfc:	bebdbebd 	.word	0xbebdbebd
    3d00:	bebdbebd 	.word	0xbebdbebd
    3d04:	c6bdc6bd 	.word	0xc6bdc6bd
    3d08:	c6bdc6bd 	.word	0xc6bdc6bd
    3d0c:	c6bdc6bd 	.word	0xc6bdc6bd
    3d10:	c6bdc6bd 	.word	0xc6bdc6bd
    3d14:	c6bdc6bd 	.word	0xc6bdc6bd
    3d18:	c6bdc6bd 	.word	0xc6bdc6bd
    3d1c:	c6bdc6bd 	.word	0xc6bdc6bd
    3d20:	c6bdc6bd 	.word	0xc6bdc6bd
    3d24:	c6bdc6bd 	.word	0xc6bdc6bd
    3d28:	c6bdc6bd 	.word	0xc6bdc6bd
    3d2c:	c6bdc6bd 	.word	0xc6bdc6bd
    3d30:	c6bdc6bd 	.word	0xc6bdc6bd
    3d34:	c6bdc6bd 	.word	0xc6bdc6bd
    3d38:	c6bdc6bd 	.word	0xc6bdc6bd
    3d3c:	c6bdc6bd 	.word	0xc6bdc6bd
    3d40:	c6bdc6bd 	.word	0xc6bdc6bd
    3d44:	c6bdc6bd 	.word	0xc6bdc6bd
    3d48:	c6bdc6bd 	.word	0xc6bdc6bd
    3d4c:	c6bdc6bd 	.word	0xc6bdc6bd
    3d50:	c6bdc6bd 	.word	0xc6bdc6bd
    3d54:	c6bdc6bd 	.word	0xc6bdc6bd
    3d58:	c6bdc6bd 	.word	0xc6bdc6bd
    3d5c:	c6bdc6bd 	.word	0xc6bdc6bd
    3d60:	c6bdc6bd 	.word	0xc6bdc6bd
    3d64:	c6bdc6bd 	.word	0xc6bdc6bd
    3d68:	c6bdc6bd 	.word	0xc6bdc6bd
    3d6c:	c6bdc6bd 	.word	0xc6bdc6bd
    3d70:	c6bdc6bd 	.word	0xc6bdc6bd
    3d74:	c6ddc6bd 	.word	0xc6ddc6bd
    3d78:	cefecedd 	.word	0xcefecedd
    3d7c:	d71ed6fe 	.word	0xd71ed6fe
    3d80:	cefed6fe 	.word	0xcefed6fe
    3d84:	d6fed6fe 	.word	0xd6fed6fe
    3d88:	ceddcefe 	.word	0xceddcefe
    3d8c:	d71ed6fe 	.word	0xd71ed6fe
    3d90:	cefecf1e 	.word	0xcefecf1e
    3d94:	cefecefd 	.word	0xcefecefd
    3d98:	d6feb63b 	.word	0xd6feb63b
    3d9c:	d6fed6fe 	.word	0xd6fed6fe
    3da0:	d6fecefe 	.word	0xd6fecefe
    3da4:	cefecefd 	.word	0xcefecefd
    3da8:	cefdcefe 	.word	0xcefdcefe
    3dac:	d6fecefd 	.word	0xd6fecefd
    3db0:	cefed6fe 	.word	0xcefed6fe
    3db4:	c6ddc6dd 	.word	0xc6ddc6dd
    3db8:	c6bdc6bd 	.word	0xc6bdc6bd
    3dbc:	c6bdc6bd 	.word	0xc6bdc6bd
    3dc0:	c6bdc6bd 	.word	0xc6bdc6bd
    3dc4:	c6bdc6bd 	.word	0xc6bdc6bd
    3dc8:	c6bdc6bd 	.word	0xc6bdc6bd
    3dcc:	c6bdc6bd 	.word	0xc6bdc6bd
    3dd0:	c6bdc6bd 	.word	0xc6bdc6bd
    3dd4:	c6bdc6bd 	.word	0xc6bdc6bd
    3dd8:	c6bdc6bd 	.word	0xc6bdc6bd
    3ddc:	c6bdc6bd 	.word	0xc6bdc6bd
    3de0:	c6bdc6bd 	.word	0xc6bdc6bd
    3de4:	c6bdc6bd 	.word	0xc6bdc6bd
    3de8:	c6bdc6bd 	.word	0xc6bdc6bd
    3dec:	c6bdc6bd 	.word	0xc6bdc6bd
    3df0:	c6bdc6bd 	.word	0xc6bdc6bd
    3df4:	c6bdc6bd 	.word	0xc6bdc6bd
    3df8:	c6bdc6bd 	.word	0xc6bdc6bd
    3dfc:	c6bdc6bd 	.word	0xc6bdc6bd
    3e00:	c6bdc6bd 	.word	0xc6bdc6bd
    3e04:	c6bdc6bd 	.word	0xc6bdc6bd
    3e08:	c6bdc6bd 	.word	0xc6bdc6bd
    3e0c:	c6bcc6bd 	.word	0xc6bcc6bd
    3e10:	9d57cedd 	.word	0x9d57cedd
    3e14:	ffbede9a 	.word	0xffbede9a
    3e18:	f7bef7be 	.word	0xf7bef7be
    3e1c:	f7bef79e 	.word	0xf7bef79e
    3e20:	f7bff79e 	.word	0xf7bff79e
    3e24:	d6dde73e 	.word	0xd6dde73e
    3e28:	df1ed6dd 	.word	0xdf1ed6dd
    3e2c:	defedf1e 	.word	0xdefedf1e
    3e30:	defedefe 	.word	0xdefedefe
    3e34:	e75edf1e 	.word	0xe75edf1e
    3e38:	e73edf1e 	.word	0xe73edf1e
    3e3c:	e73ee73e 	.word	0xe73ee73e
    3e40:	e73ecebc 	.word	0xe73ecebc
    3e44:	e75ee75e 	.word	0xe75ee75e
    3e48:	e75eef9f 	.word	0xe75eef9f
    3e4c:	ef7fe75e 	.word	0xef7fe75e
    3e50:	ef7fef5e 	.word	0xef7fef5e
    3e54:	debcef7e 	.word	0xdebcef7e
    3e58:	f79fef5e 	.word	0xf79fef5e
    3e5c:	ef7ef77f 	.word	0xef7ef77f
    3e60:	e73df79e 	.word	0xe73df79e
    3e64:	ef3de71d 	.word	0xef3de71d
    3e68:	f79eef5e 	.word	0xf79eef5e
    3e6c:	f79ff79f 	.word	0xf79ff79f
    3e70:	f7bff7bf 	.word	0xf7bff7bf
    3e74:	f79effbf 	.word	0xf79effbf
    3e78:	f79ff79f 	.word	0xf79ff79f
    3e7c:	ffbfffdf 	.word	0xffbfffdf
    3e80:	f79eef5d 	.word	0xf79eef5d
    3e84:	ffbfffbf 	.word	0xffbfffbf
    3e88:	f7beffbf 	.word	0xf7beffbf
    3e8c:	ffdff7be 	.word	0xffdff7be
    3e90:	ffdfffff 	.word	0xffdfffff
    3e94:	ef5dffff 	.word	0xef5dffff
    3e98:	ffbfef5d 	.word	0xffbfef5d
    3e9c:	ffdfffdf 	.word	0xffdfffdf
    3ea0:	ffdfffbf 	.word	0xffdfffbf
    3ea4:	f79effbe 	.word	0xf79effbe
    3ea8:	f79ef79e 	.word	0xf79ef79e
    3eac:	f79ef7be 	.word	0xf79ef7be
    3eb0:	ff9eff9e 	.word	0xff9eff9e
    3eb4:	f79ef79e 	.word	0xf79ef79e
    3eb8:	f79ef79e 	.word	0xf79ef79e
    3ebc:	f79ef79e 	.word	0xf79ef79e
    3ec0:	f79ef79e 	.word	0xf79ef79e
    3ec4:	f79ef79e 	.word	0xf79ef79e
    3ec8:	f79ef79e 	.word	0xf79ef79e
    3ecc:	f79ef79e 	.word	0xf79ef79e
    3ed0:	f79ef79e 	.word	0xf79ef79e
    3ed4:	f79ef79e 	.word	0xf79ef79e
    3ed8:	f79ef79e 	.word	0xf79ef79e
    3edc:	f79ef79e 	.word	0xf79ef79e
    3ee0:	f79ef79e 	.word	0xf79ef79e
    3ee4:	f79ef79e 	.word	0xf79ef79e
    3ee8:	f79ef79e 	.word	0xf79ef79e
    3eec:	f79ef79e 	.word	0xf79ef79e
    3ef0:	f79ef79e 	.word	0xf79ef79e
    3ef4:	f79ef79e 	.word	0xf79ef79e
    3ef8:	f79ef79e 	.word	0xf79ef79e
    3efc:	f79ef79e 	.word	0xf79ef79e
    3f00:	f79ef79e 	.word	0xf79ef79e
    3f04:	f79ef79e 	.word	0xf79ef79e
    3f08:	f79ef79e 	.word	0xf79ef79e
    3f0c:	f79ef79e 	.word	0xf79ef79e
    3f10:	f79ef79e 	.word	0xf79ef79e
    3f14:	f79ef79e 	.word	0xf79ef79e
    3f18:	f79ef79e 	.word	0xf79ef79e
    3f1c:	f79ef79e 	.word	0xf79ef79e
    3f20:	f79ef79e 	.word	0xf79ef79e
    3f24:	f79ef79e 	.word	0xf79ef79e
    3f28:	f79ef79e 	.word	0xf79ef79e
    3f2c:	f79ef79e 	.word	0xf79ef79e
    3f30:	f79ef79e 	.word	0xf79ef79e
    3f34:	f79ef79e 	.word	0xf79ef79e
    3f38:	f79ef79e 	.word	0xf79ef79e
    3f3c:	f79ef79e 	.word	0xf79ef79e
    3f40:	f79ef79e 	.word	0xf79ef79e
    3f44:	f79ef79e 	.word	0xf79ef79e
    3f48:	f79ef79e 	.word	0xf79ef79e
    3f4c:	f79ef79e 	.word	0xf79ef79e
    3f50:	f79ef79e 	.word	0xf79ef79e
    3f54:	ff9eff9e 	.word	0xff9eff9e
    3f58:	f79ef79e 	.word	0xf79ef79e
    3f5c:	f7bef79e 	.word	0xf7bef79e
    3f60:	f79eff9e 	.word	0xf79eff9e
    3f64:	f79ef79d 	.word	0xf79ef79d
    3f68:	f79ef79d 	.word	0xf79ef79d
    3f6c:	e77ef7df 	.word	0xe77ef7df
    3f70:	be7bc67b 	.word	0xbe7bc67b
    3f74:	be9dbe7c 	.word	0xbe9dbe7c
    3f78:	bebdbe9d 	.word	0xbebdbe9d
    3f7c:	bebdbebd 	.word	0xbebdbebd
    3f80:	bebdbebd 	.word	0xbebdbebd
    3f84:	c6bdc6bd 	.word	0xc6bdc6bd
    3f88:	c6bdc6bd 	.word	0xc6bdc6bd
    3f8c:	c6bdc6bd 	.word	0xc6bdc6bd
    3f90:	c6ddc6dd 	.word	0xc6ddc6dd
    3f94:	c6ddc6dd 	.word	0xc6ddc6dd
    3f98:	c6ddc6dd 	.word	0xc6ddc6dd
    3f9c:	c6ddc6dd 	.word	0xc6ddc6dd
    3fa0:	c6ddc6dd 	.word	0xc6ddc6dd
    3fa4:	c6ddc6dd 	.word	0xc6ddc6dd
    3fa8:	c6ddc6dd 	.word	0xc6ddc6dd
    3fac:	c6ddc6dd 	.word	0xc6ddc6dd
    3fb0:	c6ddc6dd 	.word	0xc6ddc6dd
    3fb4:	c6ddc6dd 	.word	0xc6ddc6dd
    3fb8:	c6ddc6dd 	.word	0xc6ddc6dd
    3fbc:	c6ddc6dd 	.word	0xc6ddc6dd
    3fc0:	c6ddc6dd 	.word	0xc6ddc6dd
    3fc4:	c6ddc6dd 	.word	0xc6ddc6dd
    3fc8:	c6ddc6dd 	.word	0xc6ddc6dd
    3fcc:	c6ddc6dd 	.word	0xc6ddc6dd
    3fd0:	c6ddc6dd 	.word	0xc6ddc6dd
    3fd4:	c6bdc6bd 	.word	0xc6bdc6bd
    3fd8:	c6bdc6bd 	.word	0xc6bdc6bd
    3fdc:	c6bdc6bd 	.word	0xc6bdc6bd
    3fe0:	c6bdc6bd 	.word	0xc6bdc6bd
    3fe4:	c6ddc6dd 	.word	0xc6ddc6dd
    3fe8:	c6ddc6dd 	.word	0xc6ddc6dd
    3fec:	c6bdc6bd 	.word	0xc6bdc6bd
    3ff0:	c6bdc6bd 	.word	0xc6bdc6bd
    3ff4:	cefecedd 	.word	0xcefecedd
    3ff8:	d71ed71e 	.word	0xd71ed71e
    3ffc:	cefecefe 	.word	0xcefecefe
    4000:	d71ed6fe 	.word	0xd71ed6fe
    4004:	cefdd71e 	.word	0xcefdd71e
    4008:	d71ed71e 	.word	0xd71ed71e
    400c:	cefecefe 	.word	0xcefecefe
    4010:	d73ecefd 	.word	0xd73ecefd
    4014:	be5bcedd 	.word	0xbe5bcedd
    4018:	cefed71e 	.word	0xcefed71e
    401c:	cefed71e 	.word	0xcefed71e
    4020:	cefed71e 	.word	0xcefed71e
    4024:	d6fecefe 	.word	0xd6fecefe
    4028:	cefed6fe 	.word	0xcefed6fe
    402c:	d6fecefe 	.word	0xd6fecefe
    4030:	d6fed6fe 	.word	0xd6fed6fe
    4034:	cefdcf1e 	.word	0xcefdcf1e
    4038:	c6bdc6bd 	.word	0xc6bdc6bd
    403c:	c6ddc6bd 	.word	0xc6ddc6bd
    4040:	c6bdc6dd 	.word	0xc6bdc6dd
    4044:	c6bdc6bd 	.word	0xc6bdc6bd
    4048:	c6bdc6bd 	.word	0xc6bdc6bd
    404c:	c6ddc6dd 	.word	0xc6ddc6dd
    4050:	c6ddc6dd 	.word	0xc6ddc6dd
    4054:	c6ddc6dd 	.word	0xc6ddc6dd
    4058:	c6ddc6dd 	.word	0xc6ddc6dd
    405c:	c6ddc6dd 	.word	0xc6ddc6dd
    4060:	c6ddc6dd 	.word	0xc6ddc6dd
    4064:	c6ddc6dd 	.word	0xc6ddc6dd
    4068:	c6ddc6dd 	.word	0xc6ddc6dd
    406c:	c6ddc6dd 	.word	0xc6ddc6dd
    4070:	c6ddc6dd 	.word	0xc6ddc6dd
    4074:	c6bdc6bd 	.word	0xc6bdc6bd
    4078:	c6ddc6dd 	.word	0xc6ddc6dd
    407c:	c6bdc6bd 	.word	0xc6bdc6bd
    4080:	c6ddc6dd 	.word	0xc6ddc6dd
    4084:	c6ddc6dd 	.word	0xc6ddc6dd
    4088:	c6ddc6dd 	.word	0xc6ddc6dd
    408c:	c6bdc6bd 	.word	0xc6bdc6bd
    4090:	9d57cedd 	.word	0x9d57cedd
    4094:	ffffd69a 	.word	0xffffd69a
    4098:	f79ef77d 	.word	0xf79ef77d
    409c:	f7bff7be 	.word	0xf7bff7be
    40a0:	defdf79f 	.word	0xdefdf79f
    40a4:	d6ddd6dd 	.word	0xd6ddd6dd
    40a8:	d6dedefe 	.word	0xd6dedefe
    40ac:	defed6de 	.word	0xdefed6de
    40b0:	df1edf1e 	.word	0xdf1edf1e
    40b4:	df1edefe 	.word	0xdf1edefe
    40b8:	df1edf1e 	.word	0xdf1edf1e
    40bc:	e73ee73e 	.word	0xe73ee73e
    40c0:	d6dde75f 	.word	0xd6dde75f
    40c4:	e75fd6dc 	.word	0xe75fd6dc
    40c8:	e75ee73e 	.word	0xe75ee73e
    40cc:	ef5ee75e 	.word	0xef5ee75e
    40d0:	e75eef7f 	.word	0xe75eef7f
    40d4:	f79fd6bc 	.word	0xf79fd6bc
    40d8:	f79ff79f 	.word	0xf79ff79f
    40dc:	defce71d 	.word	0xdefce71d
    40e0:	f79fe71d 	.word	0xf79fe71d
    40e4:	f79ff79f 	.word	0xf79ff79f
    40e8:	f79ff7bf 	.word	0xf79ff7bf
    40ec:	f79ff79f 	.word	0xf79ff79f
    40f0:	f7bff79f 	.word	0xf7bff79f
    40f4:	ffdff79e 	.word	0xffdff79e
    40f8:	f7bff79e 	.word	0xf7bff79e
    40fc:	f7bfffbf 	.word	0xf7bfffbf
    4100:	e71cffbf 	.word	0xe71cffbf
    4104:	ffbfffbf 	.word	0xffbfffbf
    4108:	ffdfffdf 	.word	0xffdfffdf
    410c:	f7bef7be 	.word	0xf7bef7be
    4110:	f7bef7be 	.word	0xf7bef7be
    4114:	f7beffbf 	.word	0xf7beffbf
    4118:	f7beef3d 	.word	0xf7beef3d
    411c:	ffbfffdf 	.word	0xffbfffdf
    4120:	ffbfffdf 	.word	0xffbfffdf
    4124:	ffbeffdf 	.word	0xffbeffdf
    4128:	f79ef79e 	.word	0xf79ef79e
    412c:	f79ef79e 	.word	0xf79ef79e
    4130:	f79ef79e 	.word	0xf79ef79e
    4134:	f79ef79e 	.word	0xf79ef79e
    4138:	f79ef79e 	.word	0xf79ef79e
    413c:	f79ef79e 	.word	0xf79ef79e
    4140:	f79ef79e 	.word	0xf79ef79e
    4144:	f79ef79e 	.word	0xf79ef79e
    4148:	f79ef79e 	.word	0xf79ef79e
    414c:	f79ef79e 	.word	0xf79ef79e
    4150:	f79ef79e 	.word	0xf79ef79e
    4154:	f79ef79e 	.word	0xf79ef79e
    4158:	f79ef79e 	.word	0xf79ef79e
    415c:	f79ef79e 	.word	0xf79ef79e
    4160:	f79ef79e 	.word	0xf79ef79e
    4164:	f79ef79e 	.word	0xf79ef79e
    4168:	f79ef79e 	.word	0xf79ef79e
    416c:	f79ef79e 	.word	0xf79ef79e
    4170:	f79ef79e 	.word	0xf79ef79e
    4174:	f79ef79e 	.word	0xf79ef79e
    4178:	f79ef79e 	.word	0xf79ef79e
    417c:	f79ef79e 	.word	0xf79ef79e
    4180:	f79ef79e 	.word	0xf79ef79e
    4184:	f79ef79e 	.word	0xf79ef79e
    4188:	f79ef79e 	.word	0xf79ef79e
    418c:	f79ef79e 	.word	0xf79ef79e
    4190:	f79ef79e 	.word	0xf79ef79e
    4194:	f79ef79e 	.word	0xf79ef79e
    4198:	f79ef79e 	.word	0xf79ef79e
    419c:	f79ef79e 	.word	0xf79ef79e
    41a0:	f79ef79e 	.word	0xf79ef79e
    41a4:	f79ef79e 	.word	0xf79ef79e
    41a8:	f79ef79e 	.word	0xf79ef79e
    41ac:	f79ef79e 	.word	0xf79ef79e
    41b0:	f79ef79e 	.word	0xf79ef79e
    41b4:	f79ef79e 	.word	0xf79ef79e
    41b8:	f79ef79e 	.word	0xf79ef79e
    41bc:	f79ef79e 	.word	0xf79ef79e
    41c0:	f79ef79e 	.word	0xf79ef79e
    41c4:	f79ef79e 	.word	0xf79ef79e
    41c8:	f79ef79e 	.word	0xf79ef79e
    41cc:	f79ef79e 	.word	0xf79ef79e
    41d0:	f79ef79e 	.word	0xf79ef79e
    41d4:	ff9eff9e 	.word	0xff9eff9e
    41d8:	f79ef79e 	.word	0xf79ef79e
    41dc:	f79ef79e 	.word	0xf79ef79e
    41e0:	f79eff9e 	.word	0xf79eff9e
    41e4:	f79ef77d 	.word	0xf79ef77d
    41e8:	f7bef79d 	.word	0xf7bef79d
    41ec:	e77ef7df 	.word	0xe77ef7df
    41f0:	be7cc67b 	.word	0xbe7cc67b
    41f4:	be9dbe7c 	.word	0xbe9dbe7c
    41f8:	bebdbe9d 	.word	0xbebdbe9d
    41fc:	c6bdc6bd 	.word	0xc6bdc6bd
    4200:	c6bdc6bd 	.word	0xc6bdc6bd
    4204:	c6bdc6bd 	.word	0xc6bdc6bd
    4208:	c6bdc6bd 	.word	0xc6bdc6bd
    420c:	c6bdc6bd 	.word	0xc6bdc6bd
    4210:	c6bdc6bd 	.word	0xc6bdc6bd
    4214:	c6ddc6dd 	.word	0xc6ddc6dd
    4218:	c6ddc6dd 	.word	0xc6ddc6dd
    421c:	c6ddc6dd 	.word	0xc6ddc6dd
    4220:	c6ddc6dd 	.word	0xc6ddc6dd
    4224:	c6ddc6dd 	.word	0xc6ddc6dd
    4228:	c6ddc6dd 	.word	0xc6ddc6dd
    422c:	c6ddc6dd 	.word	0xc6ddc6dd
    4230:	c6ddc6dd 	.word	0xc6ddc6dd
    4234:	c6ddc6dd 	.word	0xc6ddc6dd
    4238:	c6ddc6dd 	.word	0xc6ddc6dd
    423c:	c6ddc6dd 	.word	0xc6ddc6dd
    4240:	c6ddc6dd 	.word	0xc6ddc6dd
    4244:	c6ddc6dd 	.word	0xc6ddc6dd
    4248:	c6ddc6dd 	.word	0xc6ddc6dd
    424c:	c6ddc6dd 	.word	0xc6ddc6dd
    4250:	c6ddc6dd 	.word	0xc6ddc6dd
    4254:	c6bdc6bd 	.word	0xc6bdc6bd
    4258:	c6bdc6bd 	.word	0xc6bdc6bd
    425c:	c6bdc6bd 	.word	0xc6bdc6bd
    4260:	c6bdc6bd 	.word	0xc6bdc6bd
    4264:	c6bdc6dd 	.word	0xc6bdc6dd
    4268:	c6bdc6bd 	.word	0xc6bdc6bd
    426c:	c6ddc6bd 	.word	0xc6ddc6bd
    4270:	ceddcedd 	.word	0xceddcedd
    4274:	d71ed71e 	.word	0xd71ed71e
    4278:	d6fed6fe 	.word	0xd6fed6fe
    427c:	d71ed71e 	.word	0xd71ed71e
    4280:	d6fed6fe 	.word	0xd6fed6fe
    4284:	d71ed71e 	.word	0xd71ed71e
    4288:	d71ed71e 	.word	0xd71ed71e
    428c:	cefdd73e 	.word	0xcefdd73e
    4290:	c69cd73f 	.word	0xc69cd73f
    4294:	d71ec69c 	.word	0xd71ec69c
    4298:	d71ed71e 	.word	0xd71ed71e
    429c:	d71ecefd 	.word	0xd71ecefd
    42a0:	d6fed71e 	.word	0xd6fed71e
    42a4:	d71ed71e 	.word	0xd71ed71e
    42a8:	d71ed71e 	.word	0xd71ed71e
    42ac:	d71ed71e 	.word	0xd71ed71e
    42b0:	d6fed71e 	.word	0xd6fed71e
    42b4:	cefed71e 	.word	0xcefed71e
    42b8:	c6ddcefd 	.word	0xc6ddcefd
    42bc:	c6bdc6dd 	.word	0xc6bdc6dd
    42c0:	c6bdc6bd 	.word	0xc6bdc6bd
    42c4:	c6bdc6bd 	.word	0xc6bdc6bd
    42c8:	c6ddc6dd 	.word	0xc6ddc6dd
    42cc:	c6bdc6bd 	.word	0xc6bdc6bd
    42d0:	c6ddc6dd 	.word	0xc6ddc6dd
    42d4:	c6ddc6dd 	.word	0xc6ddc6dd
    42d8:	c6ddc6dd 	.word	0xc6ddc6dd
    42dc:	c6ddc6dd 	.word	0xc6ddc6dd
    42e0:	c6ddc6dd 	.word	0xc6ddc6dd
    42e4:	c6ddc6dd 	.word	0xc6ddc6dd
    42e8:	c6ddc6dd 	.word	0xc6ddc6dd
    42ec:	c6ddc6dd 	.word	0xc6ddc6dd
    42f0:	c6ddc6dd 	.word	0xc6ddc6dd
    42f4:	c6ddc6dd 	.word	0xc6ddc6dd
    42f8:	c6bdc6bd 	.word	0xc6bdc6bd
    42fc:	c6bdc6bd 	.word	0xc6bdc6bd
    4300:	c6ddc6dd 	.word	0xc6ddc6dd
    4304:	c6ddc6bd 	.word	0xc6ddc6bd
    4308:	c6ddc6dd 	.word	0xc6ddc6dd
    430c:	c6bdc6bd 	.word	0xc6bdc6bd
    4310:	9d57cedd 	.word	0x9d57cedd
    4314:	f79ddeba 	.word	0xf79ddeba
    4318:	f7beffbe 	.word	0xf7beffbe
    431c:	ef9ff79f 	.word	0xef9ff79f
    4320:	d6bcd6dc 	.word	0xd6bcd6dc
    4324:	d6ded6bd 	.word	0xd6ded6bd
    4328:	d6ded6fe 	.word	0xd6ded6fe
    432c:	d6fed6de 	.word	0xd6fed6de
    4330:	defedefe 	.word	0xdefedefe
    4334:	defee73f 	.word	0xdefee73f
    4338:	defee73f 	.word	0xdefee73f
    433c:	df1edf3e 	.word	0xdf1edf3e
    4340:	e75edf1e 	.word	0xe75edf1e
    4344:	d6bcdf1e 	.word	0xd6bcdf1e
    4348:	ef7fe71e 	.word	0xef7fe71e
    434c:	ef7fef5e 	.word	0xef7fef5e
    4350:	dedce73e 	.word	0xdedce73e
    4354:	e71df77f 	.word	0xe71df77f
    4358:	defddedc 	.word	0xdefddedc
    435c:	f77ff77f 	.word	0xf77ff77f
    4360:	ef5ef79f 	.word	0xef5ef79f
    4364:	ef7eef7e 	.word	0xef7eef7e
    4368:	f79ff79e 	.word	0xf79ff79e
    436c:	f79ff79f 	.word	0xf79ff79f
    4370:	f79ff79f 	.word	0xf79ff79f
    4374:	ef7ef7bf 	.word	0xef7ef7bf
    4378:	ffbff79e 	.word	0xffbff79e
    437c:	ffdff7bf 	.word	0xffdff7bf
    4380:	ef5dffbf 	.word	0xef5dffbf
    4384:	f7beffdf 	.word	0xf7beffdf
    4388:	ffdff7be 	.word	0xffdff7be
    438c:	ffdfffdf 	.word	0xffdfffdf
    4390:	ffdfffdf 	.word	0xffdfffdf
    4394:	ffbfffdf 	.word	0xffbfffdf
    4398:	f79effff 	.word	0xf79effff
    439c:	e73cdedb 	.word	0xe73cdedb
    43a0:	ffdff77e 	.word	0xffdff77e
    43a4:	ffdfffdf 	.word	0xffdfffdf
    43a8:	ffbeffbe 	.word	0xffbeffbe
    43ac:	f79ef79e 	.word	0xf79ef79e
    43b0:	f79ef79e 	.word	0xf79ef79e
    43b4:	f79ef79e 	.word	0xf79ef79e
    43b8:	f79ef79e 	.word	0xf79ef79e
    43bc:	f79ef79e 	.word	0xf79ef79e
    43c0:	f79ef79e 	.word	0xf79ef79e
    43c4:	f79ef79e 	.word	0xf79ef79e
    43c8:	f79ef79e 	.word	0xf79ef79e
    43cc:	f79ef79e 	.word	0xf79ef79e
    43d0:	f79ef79e 	.word	0xf79ef79e
    43d4:	f79ef79e 	.word	0xf79ef79e
    43d8:	f79ef79e 	.word	0xf79ef79e
    43dc:	f79ef79e 	.word	0xf79ef79e
    43e0:	f79ef79e 	.word	0xf79ef79e
    43e4:	f79ef79e 	.word	0xf79ef79e
    43e8:	f79ef79e 	.word	0xf79ef79e
    43ec:	f79ef79e 	.word	0xf79ef79e
    43f0:	f79ef79e 	.word	0xf79ef79e
    43f4:	f79ef79e 	.word	0xf79ef79e
    43f8:	f79ef79e 	.word	0xf79ef79e
    43fc:	f79ef79e 	.word	0xf79ef79e
    4400:	f79ef79e 	.word	0xf79ef79e
    4404:	f79ef79e 	.word	0xf79ef79e
    4408:	f79ef79e 	.word	0xf79ef79e
    440c:	f79ef79e 	.word	0xf79ef79e
    4410:	f79ef79e 	.word	0xf79ef79e
    4414:	f79ef79e 	.word	0xf79ef79e
    4418:	f79ef79e 	.word	0xf79ef79e
    441c:	f79ef79e 	.word	0xf79ef79e
    4420:	f79ef79e 	.word	0xf79ef79e
    4424:	f79ef79e 	.word	0xf79ef79e
    4428:	f79ef79e 	.word	0xf79ef79e
    442c:	f79ef79e 	.word	0xf79ef79e
    4430:	f79ef79e 	.word	0xf79ef79e
    4434:	f79ef79e 	.word	0xf79ef79e
    4438:	f79ef79e 	.word	0xf79ef79e
    443c:	f79ef79e 	.word	0xf79ef79e
    4440:	f79ef79e 	.word	0xf79ef79e
    4444:	f79ef79e 	.word	0xf79ef79e
    4448:	f79ef79e 	.word	0xf79ef79e
    444c:	f79ef79e 	.word	0xf79ef79e
    4450:	f79ef79e 	.word	0xf79ef79e
    4454:	ff9eff9e 	.word	0xff9eff9e
    4458:	f79ef79e 	.word	0xf79ef79e
    445c:	f79ef79e 	.word	0xf79ef79e
    4460:	ff9eff9e 	.word	0xff9eff9e
    4464:	f79df77d 	.word	0xf79df77d
    4468:	f7bef79d 	.word	0xf7bef79d
    446c:	e77ef7df 	.word	0xe77ef7df
    4470:	be7cc69b 	.word	0xbe7cc69b
    4474:	be9dbe7c 	.word	0xbe9dbe7c
    4478:	bebdbe9d 	.word	0xbebdbe9d
    447c:	c6bdc6bd 	.word	0xc6bdc6bd
    4480:	c6bdc6bd 	.word	0xc6bdc6bd
    4484:	c6bdc6bd 	.word	0xc6bdc6bd
    4488:	c6bdc6bd 	.word	0xc6bdc6bd
    448c:	c6bdc6bd 	.word	0xc6bdc6bd
    4490:	c6bdc6bd 	.word	0xc6bdc6bd
    4494:	c6ddc6dd 	.word	0xc6ddc6dd
    4498:	c6ddc6dd 	.word	0xc6ddc6dd
    449c:	c6ddc6dd 	.word	0xc6ddc6dd
    44a0:	c6ddc6dd 	.word	0xc6ddc6dd
    44a4:	c6ddc6dd 	.word	0xc6ddc6dd
    44a8:	c6ddc6dd 	.word	0xc6ddc6dd
    44ac:	c6ddc6dd 	.word	0xc6ddc6dd
    44b0:	c6ddc6dd 	.word	0xc6ddc6dd
    44b4:	c6ddc6dd 	.word	0xc6ddc6dd
    44b8:	c6ddc6dd 	.word	0xc6ddc6dd
    44bc:	c6ddc6dd 	.word	0xc6ddc6dd
    44c0:	c6ddc6dd 	.word	0xc6ddc6dd
    44c4:	c6ddc6dd 	.word	0xc6ddc6dd
    44c8:	c6ddc6dd 	.word	0xc6ddc6dd
    44cc:	c6ddc6dd 	.word	0xc6ddc6dd
    44d0:	c6ddc6dd 	.word	0xc6ddc6dd
    44d4:	c6bdc6bd 	.word	0xc6bdc6bd
    44d8:	c6bdc6bd 	.word	0xc6bdc6bd
    44dc:	c6bdc6bd 	.word	0xc6bdc6bd
    44e0:	c6bdc6bd 	.word	0xc6bdc6bd
    44e4:	c6bdc6dd 	.word	0xc6bdc6dd
    44e8:	c6bdc6bd 	.word	0xc6bdc6bd
    44ec:	ceddcedd 	.word	0xceddcedd
    44f0:	d71ecefe 	.word	0xd71ecefe
    44f4:	d6fed71e 	.word	0xd6fed71e
    44f8:	cefecefe 	.word	0xcefecefe
    44fc:	d71ed71e 	.word	0xd71ed71e
    4500:	cefdd6fe 	.word	0xcefdd6fe
    4504:	d6fed71e 	.word	0xd6fed71e
    4508:	cefdd71e 	.word	0xcefdd71e
    450c:	df5fcf1e 	.word	0xdf5fcf1e
    4510:	c6bcc69c 	.word	0xc6bcc69c
    4514:	d71ed6fe 	.word	0xd71ed6fe
    4518:	cefecefd 	.word	0xcefecefd
    451c:	cefed71e 	.word	0xcefed71e
    4520:	d71ecefd 	.word	0xd71ecefd
    4524:	d6fed6fe 	.word	0xd6fed6fe
    4528:	d6fed6fe 	.word	0xd6fed6fe
    452c:	d71ed71e 	.word	0xd71ed71e
    4530:	d6fed6fe 	.word	0xd6fed6fe
    4534:	d71ecefe 	.word	0xd71ecefe
    4538:	cefdd71e 	.word	0xcefdd71e
    453c:	c6bdc6dd 	.word	0xc6bdc6dd
    4540:	c6ddc6bd 	.word	0xc6ddc6bd
    4544:	c6bdc6bd 	.word	0xc6bdc6bd
    4548:	c6ddc6dd 	.word	0xc6ddc6dd
    454c:	c6bdc6bd 	.word	0xc6bdc6bd
    4550:	c6ddc6dd 	.word	0xc6ddc6dd
    4554:	c6ddc6dd 	.word	0xc6ddc6dd
    4558:	c6ddc6dd 	.word	0xc6ddc6dd
    455c:	c6ddc6dd 	.word	0xc6ddc6dd
    4560:	c6ddc6dd 	.word	0xc6ddc6dd
    4564:	c6ddc6dd 	.word	0xc6ddc6dd
    4568:	c6ddc6dd 	.word	0xc6ddc6dd
    456c:	c6ddc6dd 	.word	0xc6ddc6dd
    4570:	c6ddc6dd 	.word	0xc6ddc6dd
    4574:	c6ddc6dd 	.word	0xc6ddc6dd
    4578:	c6bdc6bd 	.word	0xc6bdc6bd
    457c:	c6bdc6bd 	.word	0xc6bdc6bd
    4580:	c6ddc6dd 	.word	0xc6ddc6dd
    4584:	c6ddc6bd 	.word	0xc6ddc6bd
    4588:	c6ddc6dd 	.word	0xc6ddc6dd
    458c:	c6bdc6bd 	.word	0xc6bdc6bd
    4590:	9d57cedd 	.word	0x9d57cedd
    4594:	ffffd6ba 	.word	0xffffd6ba
    4598:	f7dfef7e 	.word	0xf7dfef7e
    459c:	cebcef7f 	.word	0xcebcef7f
    45a0:	cebdd6dd 	.word	0xcebdd6dd
    45a4:	d6ddd6dd 	.word	0xd6ddd6dd
    45a8:	d6fed6de 	.word	0xd6fed6de
    45ac:	d6ded6fe 	.word	0xd6ded6fe
    45b0:	d6fed6de 	.word	0xd6fed6de
    45b4:	df1ed6bd 	.word	0xdf1ed6bd
    45b8:	df3edefe 	.word	0xdf3edefe
    45bc:	df1edf3f 	.word	0xdf1edf3f
    45c0:	e75edf1e 	.word	0xe75edf1e
    45c4:	e77fdf3e 	.word	0xe77fdf3e
    45c8:	d6dcdefd 	.word	0xd6dcdefd
    45cc:	dedcef9f 	.word	0xdedcef9f
    45d0:	defdce7b 	.word	0xdefdce7b
    45d4:	e73edefd 	.word	0xe73edefd
    45d8:	ef7fef7f 	.word	0xef7fef7f
    45dc:	ef9fef5e 	.word	0xef9fef5e
    45e0:	f7bfef7e 	.word	0xf7bfef7e
    45e4:	ef9fef9f 	.word	0xef9fef9f
    45e8:	f79fef9e 	.word	0xf79fef9e
    45ec:	f79ff79f 	.word	0xf79ff79f
    45f0:	f79ef79f 	.word	0xf79ef79f
    45f4:	f7bff79f 	.word	0xf7bff79f
    45f8:	f7bff79f 	.word	0xf7bff79f
    45fc:	f79ff79e 	.word	0xf79ff79e
    4600:	e73dffdf 	.word	0xe73dffdf
    4604:	f7bfffbf 	.word	0xf7bfffbf
    4608:	ffdfffbf 	.word	0xffdfffbf
    460c:	f7bff7bf 	.word	0xf7bff7bf
    4610:	ffdff7bf 	.word	0xffdff7bf
    4614:	ffdfffbf 	.word	0xffdfffbf
    4618:	ffdff7be 	.word	0xffdff7be
    461c:	e71cef7d 	.word	0xe71cef7d
    4620:	ffbfdefb 	.word	0xffbfdefb
    4624:	ffdff7be 	.word	0xffdff7be
    4628:	ffdfffdf 	.word	0xffdfffdf
    462c:	ffbeffbe 	.word	0xffbeffbe
    4630:	f79ef7be 	.word	0xf79ef7be
    4634:	f79ef79e 	.word	0xf79ef79e
    4638:	f79ef79e 	.word	0xf79ef79e
    463c:	f79ef79e 	.word	0xf79ef79e
    4640:	f79ef79e 	.word	0xf79ef79e
    4644:	f79ef79e 	.word	0xf79ef79e
    4648:	f79ef79e 	.word	0xf79ef79e
    464c:	f79ef79e 	.word	0xf79ef79e
    4650:	f79ef79e 	.word	0xf79ef79e
    4654:	f79ef79e 	.word	0xf79ef79e
    4658:	f79ef79e 	.word	0xf79ef79e
    465c:	f79ef79e 	.word	0xf79ef79e
    4660:	f79ef79e 	.word	0xf79ef79e
    4664:	f79ef79e 	.word	0xf79ef79e
    4668:	f79ef79e 	.word	0xf79ef79e
    466c:	f79ef79e 	.word	0xf79ef79e
    4670:	f79ef79e 	.word	0xf79ef79e
    4674:	f79ef79e 	.word	0xf79ef79e
    4678:	f79ef79e 	.word	0xf79ef79e
    467c:	f79ef79e 	.word	0xf79ef79e
    4680:	f79ef79e 	.word	0xf79ef79e
    4684:	f79ef79e 	.word	0xf79ef79e
    4688:	f79ef79e 	.word	0xf79ef79e
    468c:	f79ef79e 	.word	0xf79ef79e
    4690:	f79ef79e 	.word	0xf79ef79e
    4694:	f79ef79e 	.word	0xf79ef79e
    4698:	f79ef79e 	.word	0xf79ef79e
    469c:	f79ef79e 	.word	0xf79ef79e
    46a0:	f79ef79e 	.word	0xf79ef79e
    46a4:	f79ef79e 	.word	0xf79ef79e
    46a8:	f79ef79e 	.word	0xf79ef79e
    46ac:	f79ef79e 	.word	0xf79ef79e
    46b0:	f79ef79e 	.word	0xf79ef79e
    46b4:	f79ef79e 	.word	0xf79ef79e
    46b8:	f79ef79e 	.word	0xf79ef79e
    46bc:	f79ef79e 	.word	0xf79ef79e
    46c0:	f79ef79e 	.word	0xf79ef79e
    46c4:	f79ef79e 	.word	0xf79ef79e
    46c8:	f79ef79e 	.word	0xf79ef79e
    46cc:	f79ef79e 	.word	0xf79ef79e
    46d0:	f79ef79e 	.word	0xf79ef79e
    46d4:	f77eff9e 	.word	0xf77eff9e
    46d8:	f79ef79e 	.word	0xf79ef79e
    46dc:	f79ef79e 	.word	0xf79ef79e
    46e0:	ff9eff9e 	.word	0xff9eff9e
    46e4:	f79df77d 	.word	0xf79df77d
    46e8:	f7bef79d 	.word	0xf7bef79d
    46ec:	e77ef7df 	.word	0xe77ef7df
    46f0:	be7cc69b 	.word	0xbe7cc69b
    46f4:	be9dbe9c 	.word	0xbe9dbe9c
    46f8:	be9dbe9d 	.word	0xbe9dbe9d
    46fc:	c6bdc6bd 	.word	0xc6bdc6bd
    4700:	c6bdc6bd 	.word	0xc6bdc6bd
    4704:	c6bdc6bd 	.word	0xc6bdc6bd
    4708:	c6bdc6bd 	.word	0xc6bdc6bd
    470c:	c6bdc6bd 	.word	0xc6bdc6bd
    4710:	c6bdc6bd 	.word	0xc6bdc6bd
    4714:	c6bdc6bd 	.word	0xc6bdc6bd
    4718:	c6bdc6bd 	.word	0xc6bdc6bd
    471c:	c6bdc6bd 	.word	0xc6bdc6bd
    4720:	c6bdc6bd 	.word	0xc6bdc6bd
    4724:	c6ddc6dd 	.word	0xc6ddc6dd
    4728:	c6ddc6dd 	.word	0xc6ddc6dd
    472c:	c6ddc6dd 	.word	0xc6ddc6dd
    4730:	c6ddc6dd 	.word	0xc6ddc6dd
    4734:	c6ddc6dd 	.word	0xc6ddc6dd
    4738:	c6ddc6dd 	.word	0xc6ddc6dd
    473c:	c6ddc6dd 	.word	0xc6ddc6dd
    4740:	c6ddc6dd 	.word	0xc6ddc6dd
    4744:	c6ddc6dd 	.word	0xc6ddc6dd
    4748:	c6ddc6dd 	.word	0xc6ddc6dd
    474c:	c6ddc6dd 	.word	0xc6ddc6dd
    4750:	c6ddc6dd 	.word	0xc6ddc6dd
    4754:	c6ddc6dd 	.word	0xc6ddc6dd
    4758:	c6ddc6dd 	.word	0xc6ddc6dd
    475c:	c6ddc6dd 	.word	0xc6ddc6dd
    4760:	c6ddc6dd 	.word	0xc6ddc6dd
    4764:	c6bdc6bd 	.word	0xc6bdc6bd
    4768:	cefdcedd 	.word	0xcefdcedd
    476c:	cefecefd 	.word	0xcefecefd
    4770:	d71ed71e 	.word	0xd71ed71e
    4774:	d6fed6fe 	.word	0xd6fed6fe
    4778:	d6fed6fe 	.word	0xd6fed6fe
    477c:	d6fdd6fd 	.word	0xd6fdd6fd
    4780:	d71ed71e 	.word	0xd71ed71e
    4784:	d6fecefd 	.word	0xd6fecefd
    4788:	cefdd71e 	.word	0xcefdd71e
    478c:	b63adf5f 	.word	0xb63adf5f
    4790:	d71ecedd 	.word	0xd71ecedd
    4794:	cefed73e 	.word	0xcefed73e
    4798:	ceddd71e 	.word	0xceddd71e
    479c:	d71ecefe 	.word	0xd71ecefe
    47a0:	cefed71e 	.word	0xcefed71e
    47a4:	d6fed6fe 	.word	0xd6fed6fe
    47a8:	d6fed6fe 	.word	0xd6fed6fe
    47ac:	d6fed6fe 	.word	0xd6fed6fe
    47b0:	d6fed6fe 	.word	0xd6fed6fe
    47b4:	d71ecefd 	.word	0xd71ecefd
    47b8:	cf1ed71e 	.word	0xcf1ed71e
    47bc:	ceddcefd 	.word	0xceddcefd
    47c0:	c6ddc6dd 	.word	0xc6ddc6dd
    47c4:	c6ddc6dd 	.word	0xc6ddc6dd
    47c8:	c6ddc6dd 	.word	0xc6ddc6dd
    47cc:	c6ddc6dd 	.word	0xc6ddc6dd
    47d0:	c6ddc6dd 	.word	0xc6ddc6dd
    47d4:	c6ddc6dd 	.word	0xc6ddc6dd
    47d8:	c6ddc6dd 	.word	0xc6ddc6dd
    47dc:	c6ddc6dd 	.word	0xc6ddc6dd
    47e0:	c6ddc6dd 	.word	0xc6ddc6dd
    47e4:	c6ddc6dd 	.word	0xc6ddc6dd
    47e8:	c6ddc6dd 	.word	0xc6ddc6dd
    47ec:	c6ddc6dd 	.word	0xc6ddc6dd
    47f0:	c6ddc6dd 	.word	0xc6ddc6dd
    47f4:	c6ddc6dd 	.word	0xc6ddc6dd
    47f8:	c6ddc6dd 	.word	0xc6ddc6dd
    47fc:	c6ddc6dd 	.word	0xc6ddc6dd
    4800:	c6ddc6dd 	.word	0xc6ddc6dd
    4804:	c6ddc6dd 	.word	0xc6ddc6dd
    4808:	c6ddc6dd 	.word	0xc6ddc6dd
    480c:	c6bdc6bd 	.word	0xc6bdc6bd
    4810:	9d57cedd 	.word	0x9d57cedd
    4814:	ffdfd6ba 	.word	0xffdfd6ba
    4818:	e73ef7bf 	.word	0xe73ef7bf
    481c:	d6bdd6dd 	.word	0xd6bdd6dd
    4820:	cedecebd 	.word	0xcedecebd
    4824:	d6decede 	.word	0xd6decede
    4828:	ceddd6de 	.word	0xceddd6de
    482c:	d6fed6de 	.word	0xd6fed6de
    4830:	d6fed6fe 	.word	0xd6fed6fe
    4834:	defed6fe 	.word	0xdefed6fe
    4838:	defedf1e 	.word	0xdefedf1e
    483c:	df3fdf1e 	.word	0xdf3fdf1e
    4840:	df1edf3f 	.word	0xdf1edf3f
    4844:	df1ee73e 	.word	0xdf1ee73e
    4848:	c65be73e 	.word	0xc65be73e
    484c:	c63ace7b 	.word	0xc63ace7b
    4850:	ef7fdefd 	.word	0xef7fdefd
    4854:	ef5eef5f 	.word	0xef5eef5f
    4858:	ef7fef5e 	.word	0xef7fef5e
    485c:	ef5eef7f 	.word	0xef5eef7f
    4860:	ef7eef7f 	.word	0xef7eef7f
    4864:	ef7eef7f 	.word	0xef7eef7f
    4868:	ef7eef7e 	.word	0xef7eef7e
    486c:	f79fef9e 	.word	0xf79fef9e
    4870:	f79ff79f 	.word	0xf79ff79f
    4874:	f7bff79f 	.word	0xf7bff79f
    4878:	f7bff79e 	.word	0xf7bff79e
    487c:	ffbff7bf 	.word	0xffbff7bf
    4880:	e71cf7bf 	.word	0xe71cf7bf
    4884:	f7bfffbf 	.word	0xf7bfffbf
    4888:	f7bff7bf 	.word	0xf7bff7bf
    488c:	ffbff7bf 	.word	0xffbff7bf
    4890:	f7bfffdf 	.word	0xf7bfffdf
    4894:	ffdfffbf 	.word	0xffdfffbf
    4898:	ffbfffbf 	.word	0xffbfffbf
    489c:	ffdfffdf 	.word	0xffdfffdf
    48a0:	ffbfe73c 	.word	0xffbfe73c
    48a4:	f79eef7d 	.word	0xf79eef7d
    48a8:	ffdfffdf 	.word	0xffdfffdf
    48ac:	ffbeffbe 	.word	0xffbeffbe
    48b0:	f79effbe 	.word	0xf79effbe
    48b4:	f79ef79e 	.word	0xf79ef79e
    48b8:	f79ef79e 	.word	0xf79ef79e
    48bc:	f79ef79e 	.word	0xf79ef79e
    48c0:	f79ef79e 	.word	0xf79ef79e
    48c4:	f79ef79e 	.word	0xf79ef79e
    48c8:	f79ef79e 	.word	0xf79ef79e
    48cc:	f79ef79e 	.word	0xf79ef79e
    48d0:	f79ef79e 	.word	0xf79ef79e
    48d4:	f79ef79e 	.word	0xf79ef79e
    48d8:	f79ef79e 	.word	0xf79ef79e
    48dc:	f79ef79e 	.word	0xf79ef79e
    48e0:	f79ef79e 	.word	0xf79ef79e
    48e4:	f79ef79e 	.word	0xf79ef79e
    48e8:	f79ef79e 	.word	0xf79ef79e
    48ec:	f79ef79e 	.word	0xf79ef79e
    48f0:	f79ef79e 	.word	0xf79ef79e
    48f4:	f79ef79e 	.word	0xf79ef79e
    48f8:	f79ef79e 	.word	0xf79ef79e
    48fc:	f79ef79e 	.word	0xf79ef79e
    4900:	f79ef79e 	.word	0xf79ef79e
    4904:	f79ef79e 	.word	0xf79ef79e
    4908:	f79ef79e 	.word	0xf79ef79e
    490c:	f79ef79e 	.word	0xf79ef79e
    4910:	f79ef79e 	.word	0xf79ef79e
    4914:	f79ef79e 	.word	0xf79ef79e
    4918:	f79ef79e 	.word	0xf79ef79e
    491c:	f79ef79e 	.word	0xf79ef79e
    4920:	f79ef79e 	.word	0xf79ef79e
    4924:	f79ef79e 	.word	0xf79ef79e
    4928:	f79ef79e 	.word	0xf79ef79e
    492c:	f79ef79e 	.word	0xf79ef79e
    4930:	f79ef79e 	.word	0xf79ef79e
    4934:	f79ef79e 	.word	0xf79ef79e
    4938:	f79ef79e 	.word	0xf79ef79e
    493c:	f79ef79e 	.word	0xf79ef79e
    4940:	f79ef79e 	.word	0xf79ef79e
    4944:	f79ef79e 	.word	0xf79ef79e
    4948:	f79ef79e 	.word	0xf79ef79e
    494c:	f79ef79e 	.word	0xf79ef79e
    4950:	f79ef79e 	.word	0xf79ef79e
    4954:	f79ef79e 	.word	0xf79ef79e
    4958:	f79ef79e 	.word	0xf79ef79e
    495c:	f79ef79e 	.word	0xf79ef79e
    4960:	ff9eff9e 	.word	0xff9eff9e
    4964:	f79ef77d 	.word	0xf79ef77d
    4968:	f7bef79d 	.word	0xf7bef79d
    496c:	e77ef7df 	.word	0xe77ef7df
    4970:	be7bc67b 	.word	0xbe7bc67b
    4974:	be9dbe9c 	.word	0xbe9dbe9c
    4978:	be9dbe9d 	.word	0xbe9dbe9d
    497c:	c6bdc6bd 	.word	0xc6bdc6bd
    4980:	c6bdc6bd 	.word	0xc6bdc6bd
    4984:	c6bdc6bd 	.word	0xc6bdc6bd
    4988:	c6bdc6bd 	.word	0xc6bdc6bd
    498c:	c6bdc6bd 	.word	0xc6bdc6bd
    4990:	c6bdc6bd 	.word	0xc6bdc6bd
    4994:	c6ddc6dd 	.word	0xc6ddc6dd
    4998:	c6ddc6dd 	.word	0xc6ddc6dd
    499c:	c6ddc6dd 	.word	0xc6ddc6dd
    49a0:	c6ddc6dd 	.word	0xc6ddc6dd
    49a4:	c6ddc6dd 	.word	0xc6ddc6dd
    49a8:	c6ddc6dd 	.word	0xc6ddc6dd
    49ac:	c6ddc6dd 	.word	0xc6ddc6dd
    49b0:	c6ddc6dd 	.word	0xc6ddc6dd
    49b4:	c6ddc6dd 	.word	0xc6ddc6dd
    49b8:	c6ddc6dd 	.word	0xc6ddc6dd
    49bc:	c6ddc6dd 	.word	0xc6ddc6dd
    49c0:	c6ddc6dd 	.word	0xc6ddc6dd
    49c4:	c6ddc6dd 	.word	0xc6ddc6dd
    49c8:	c6ddc6dd 	.word	0xc6ddc6dd
    49cc:	c6ddc6dd 	.word	0xc6ddc6dd
    49d0:	c6ddc6dd 	.word	0xc6ddc6dd
    49d4:	c6ddc6dd 	.word	0xc6ddc6dd
    49d8:	c6ddc6dd 	.word	0xc6ddc6dd
    49dc:	c6ddc6dd 	.word	0xc6ddc6dd
    49e0:	c6ddc6dd 	.word	0xc6ddc6dd
    49e4:	c6ddc6bd 	.word	0xc6ddc6bd
    49e8:	d71ecefd 	.word	0xd71ecefd
    49ec:	d71ed71e 	.word	0xd71ed71e
    49f0:	d71ed6fe 	.word	0xd71ed6fe
    49f4:	d71ed71e 	.word	0xd71ed71e
    49f8:	d71ed71e 	.word	0xd71ed71e
    49fc:	d71ed71e 	.word	0xd71ed71e
    4a00:	d71ed71e 	.word	0xd71ed71e
    4a04:	cefdd71e 	.word	0xcefdd71e
    4a08:	df3fd6fe 	.word	0xdf3fd6fe
    4a0c:	cf1eb61a 	.word	0xcf1eb61a
    4a10:	cefed73e 	.word	0xcefed73e
    4a14:	d71ecefe 	.word	0xd71ecefe
    4a18:	d71ed71e 	.word	0xd71ed71e
    4a1c:	d6fed71e 	.word	0xd6fed71e
    4a20:	d71ed71e 	.word	0xd71ed71e
    4a24:	d71ed71e 	.word	0xd71ed71e
    4a28:	d71ed71e 	.word	0xd71ed71e
    4a2c:	d6fed6fe 	.word	0xd6fed6fe
    4a30:	d71ed71e 	.word	0xd71ed71e
    4a34:	d71ed71e 	.word	0xd71ed71e
    4a38:	d71ed6fe 	.word	0xd71ed6fe
    4a3c:	cefed71e 	.word	0xcefed71e
    4a40:	c6bdcedd 	.word	0xc6bdcedd
    4a44:	c6ddc6dd 	.word	0xc6ddc6dd
    4a48:	c6ddc6dd 	.word	0xc6ddc6dd
    4a4c:	c6ddc6dd 	.word	0xc6ddc6dd
    4a50:	c6ddc6dd 	.word	0xc6ddc6dd
    4a54:	c6ddc6dd 	.word	0xc6ddc6dd
    4a58:	c6ddc6dd 	.word	0xc6ddc6dd
    4a5c:	c6ddc6dd 	.word	0xc6ddc6dd
    4a60:	c6ddc6dd 	.word	0xc6ddc6dd
    4a64:	c6ddc6dd 	.word	0xc6ddc6dd
    4a68:	c6ddc6dd 	.word	0xc6ddc6dd
    4a6c:	c6ddc6dd 	.word	0xc6ddc6dd
    4a70:	c6ddc6dd 	.word	0xc6ddc6dd
    4a74:	c6ddc6dd 	.word	0xc6ddc6dd
    4a78:	c6ddc6dd 	.word	0xc6ddc6dd
    4a7c:	c6ddc6dd 	.word	0xc6ddc6dd
    4a80:	c6ddc6dd 	.word	0xc6ddc6dd
    4a84:	c6ddc6dd 	.word	0xc6ddc6dd
    4a88:	c6ddc6dd 	.word	0xc6ddc6dd
    4a8c:	ceddc6dd 	.word	0xceddc6dd
    4a90:	9d57cedd 	.word	0x9d57cedd
    4a94:	f7dfd6db 	.word	0xf7dfd6db
    4a98:	d6bce73d 	.word	0xd6bce73d
    4a9c:	d6bed6bd 	.word	0xd6bed6bd
    4aa0:	cebecebe 	.word	0xcebecebe
    4aa4:	cedecede 	.word	0xcedecede
    4aa8:	ceddcedd 	.word	0xceddcedd
    4aac:	d6decedd 	.word	0xd6decedd
    4ab0:	d6ded6de 	.word	0xd6ded6de
    4ab4:	d71ed6de 	.word	0xd71ed6de
    4ab8:	d71ed6fe 	.word	0xd71ed6fe
    4abc:	df1ed6fe 	.word	0xdf1ed6fe
    4ac0:	df3edf1e 	.word	0xdf3edf1e
    4ac4:	df3edf3e 	.word	0xdf3edf3e
    4ac8:	d6bcdf1e 	.word	0xd6bcdf1e
    4acc:	dedde71e 	.word	0xdedde71e
    4ad0:	ef7fd6dc 	.word	0xef7fd6dc
    4ad4:	e75eef7f 	.word	0xe75eef7f
    4ad8:	e75eef5e 	.word	0xe75eef5e
    4adc:	ef5eef7f 	.word	0xef5eef7f
    4ae0:	ef7fef7e 	.word	0xef7fef7e
    4ae4:	ef7eef7f 	.word	0xef7eef7f
    4ae8:	ef9fef9f 	.word	0xef9fef9f
    4aec:	ef9fef9f 	.word	0xef9fef9f
    4af0:	f79fef9f 	.word	0xf79fef9f
    4af4:	ef9ff79f 	.word	0xef9ff79f
    4af8:	f7bff7bf 	.word	0xf7bff7bf
    4afc:	ffbff79f 	.word	0xffbff79f
    4b00:	e71df79f 	.word	0xe71df79f
    4b04:	ffbfffbf 	.word	0xffbfffbf
    4b08:	f7bff7bf 	.word	0xf7bff7bf
    4b0c:	f7bff7bf 	.word	0xf7bff7bf
    4b10:	f7bff7bf 	.word	0xf7bff7bf
    4b14:	ffdff7bf 	.word	0xffdff7bf
    4b18:	f7bfffdf 	.word	0xf7bfffdf
    4b1c:	ffdfffbf 	.word	0xffdfffbf
    4b20:	ef7df7be 	.word	0xef7df7be
    4b24:	f7bef79e 	.word	0xf7bef79e
    4b28:	ffbfffbf 	.word	0xffbfffbf
    4b2c:	ffbfffbf 	.word	0xffbfffbf
    4b30:	ffbeffbe 	.word	0xffbeffbe
    4b34:	f79ef79e 	.word	0xf79ef79e
    4b38:	f79ef79e 	.word	0xf79ef79e
    4b3c:	f7bef79e 	.word	0xf7bef79e
    4b40:	f79ef79e 	.word	0xf79ef79e
    4b44:	f79ef79e 	.word	0xf79ef79e
    4b48:	f79ef7be 	.word	0xf79ef7be
    4b4c:	f79ef79e 	.word	0xf79ef79e
    4b50:	f79ef79e 	.word	0xf79ef79e
    4b54:	f79ef79e 	.word	0xf79ef79e
    4b58:	f79ef79e 	.word	0xf79ef79e
    4b5c:	f79ef79e 	.word	0xf79ef79e
    4b60:	f79ef79e 	.word	0xf79ef79e
    4b64:	f79ef79e 	.word	0xf79ef79e
    4b68:	f79ef79e 	.word	0xf79ef79e
    4b6c:	f79ef79e 	.word	0xf79ef79e
    4b70:	f79ef79e 	.word	0xf79ef79e
    4b74:	f79ef79e 	.word	0xf79ef79e
    4b78:	f79ef79e 	.word	0xf79ef79e
    4b7c:	f79ef79e 	.word	0xf79ef79e
    4b80:	f79ef79e 	.word	0xf79ef79e
    4b84:	f79ef79e 	.word	0xf79ef79e
    4b88:	f79ef79e 	.word	0xf79ef79e
    4b8c:	f79ef79e 	.word	0xf79ef79e
    4b90:	f79ef79e 	.word	0xf79ef79e
    4b94:	f79ef79e 	.word	0xf79ef79e
    4b98:	f79ef79e 	.word	0xf79ef79e
    4b9c:	f79ef79e 	.word	0xf79ef79e
    4ba0:	f79ef79e 	.word	0xf79ef79e
    4ba4:	f79ef79e 	.word	0xf79ef79e
    4ba8:	f79ef79e 	.word	0xf79ef79e
    4bac:	f79ef79e 	.word	0xf79ef79e
    4bb0:	f79ef79e 	.word	0xf79ef79e
    4bb4:	f79ef79e 	.word	0xf79ef79e
    4bb8:	f79ef79e 	.word	0xf79ef79e
    4bbc:	f79ef79e 	.word	0xf79ef79e
    4bc0:	f79ef79e 	.word	0xf79ef79e
    4bc4:	f79ef79e 	.word	0xf79ef79e
    4bc8:	f79ef79e 	.word	0xf79ef79e
    4bcc:	f79ef79e 	.word	0xf79ef79e
    4bd0:	f79ef79e 	.word	0xf79ef79e
    4bd4:	f79ef79e 	.word	0xf79ef79e
    4bd8:	f79ef79e 	.word	0xf79ef79e
    4bdc:	f79ef79e 	.word	0xf79ef79e
    4be0:	ff9eff9e 	.word	0xff9eff9e
    4be4:	f79df77d 	.word	0xf79df77d
    4be8:	f79ef79d 	.word	0xf79ef79d
    4bec:	e77ef7df 	.word	0xe77ef7df
    4bf0:	be5bc69c 	.word	0xbe5bc69c
    4bf4:	be9dbe9c 	.word	0xbe9dbe9c
    4bf8:	be9dbe9d 	.word	0xbe9dbe9d
    4bfc:	c6bdc6bd 	.word	0xc6bdc6bd
    4c00:	c6bdc6bd 	.word	0xc6bdc6bd
    4c04:	c6bdc6bd 	.word	0xc6bdc6bd
    4c08:	c6bdc6bd 	.word	0xc6bdc6bd
    4c0c:	c6bdc6bd 	.word	0xc6bdc6bd
    4c10:	c6bdc6bd 	.word	0xc6bdc6bd
    4c14:	c6ddc6dd 	.word	0xc6ddc6dd
    4c18:	c6ddc6dd 	.word	0xc6ddc6dd
    4c1c:	c6ddc6dd 	.word	0xc6ddc6dd
    4c20:	c6ddc6dd 	.word	0xc6ddc6dd
    4c24:	c6ddc6dd 	.word	0xc6ddc6dd
    4c28:	c6ddc6dd 	.word	0xc6ddc6dd
    4c2c:	c6ddc6dd 	.word	0xc6ddc6dd
    4c30:	c6ddc6dd 	.word	0xc6ddc6dd
    4c34:	c6ddc6dd 	.word	0xc6ddc6dd
    4c38:	c6ddc6dd 	.word	0xc6ddc6dd
    4c3c:	c6ddc6dd 	.word	0xc6ddc6dd
    4c40:	c6ddc6dd 	.word	0xc6ddc6dd
    4c44:	c6ddc6bd 	.word	0xc6ddc6bd
    4c48:	c6ddc6dd 	.word	0xc6ddc6dd
    4c4c:	c6ddc6dd 	.word	0xc6ddc6dd
    4c50:	c6ddc6dd 	.word	0xc6ddc6dd
    4c54:	c6ddc6dd 	.word	0xc6ddc6dd
    4c58:	c6ddc6dd 	.word	0xc6ddc6dd
    4c5c:	c6ddc6dd 	.word	0xc6ddc6dd
    4c60:	c6bdc6bd 	.word	0xc6bdc6bd
    4c64:	cefecefe 	.word	0xcefecefe
    4c68:	d6fed6fe 	.word	0xd6fed6fe
    4c6c:	d6fed6fe 	.word	0xd6fed6fe
    4c70:	d6fed6fe 	.word	0xd6fed6fe
    4c74:	d6fdd71e 	.word	0xd6fdd71e
    4c78:	d6fed6fe 	.word	0xd6fed6fe
    4c7c:	d6fdd71e 	.word	0xd6fdd71e
    4c80:	d71ed71e 	.word	0xd71ed71e
    4c84:	d71ed71e 	.word	0xd71ed71e
    4c88:	b61ad71e 	.word	0xb61ad71e
    4c8c:	cefedf3f 	.word	0xcefedf3f
    4c90:	d6fed6fe 	.word	0xd6fed6fe
    4c94:	d6fed6fe 	.word	0xd6fed6fe
    4c98:	d6fed6fe 	.word	0xd6fed6fe
    4c9c:	d6fed6fe 	.word	0xd6fed6fe
    4ca0:	d6fed6fe 	.word	0xd6fed6fe
    4ca4:	d6fed6fd 	.word	0xd6fed6fd
    4ca8:	d6fed71e 	.word	0xd6fed71e
    4cac:	d6fdcefd 	.word	0xd6fdcefd
    4cb0:	d6fed71e 	.word	0xd6fed71e
    4cb4:	cefdd6fe 	.word	0xcefdd6fe
    4cb8:	cefdd71e 	.word	0xcefdd71e
    4cbc:	d71ed71e 	.word	0xd71ed71e
    4cc0:	c6ddc69c 	.word	0xc6ddc69c
    4cc4:	c6bdc6bd 	.word	0xc6bdc6bd
    4cc8:	c6ddc6dd 	.word	0xc6ddc6dd
    4ccc:	c6bdc6dd 	.word	0xc6bdc6dd
    4cd0:	c6ddc6bd 	.word	0xc6ddc6bd
    4cd4:	c6ddc6dd 	.word	0xc6ddc6dd
    4cd8:	c6ddc6dd 	.word	0xc6ddc6dd
    4cdc:	c6ddc6dd 	.word	0xc6ddc6dd
    4ce0:	c6ddc6dd 	.word	0xc6ddc6dd
    4ce4:	c6ddc6dd 	.word	0xc6ddc6dd
    4ce8:	c6ddc6dd 	.word	0xc6ddc6dd
    4cec:	c6ddc6dd 	.word	0xc6ddc6dd
    4cf0:	c6ddc6dd 	.word	0xc6ddc6dd
    4cf4:	c6ddc6dd 	.word	0xc6ddc6dd
    4cf8:	c6ddc6dd 	.word	0xc6ddc6dd
    4cfc:	c6ddc6dd 	.word	0xc6ddc6dd
    4d00:	c6ddc6dd 	.word	0xc6ddc6dd
    4d04:	c6ddc6dd 	.word	0xc6ddc6dd
    4d08:	c6ddc6dd 	.word	0xc6ddc6dd
    4d0c:	ceddc6bd 	.word	0xceddc6bd
    4d10:	9d57cefd 	.word	0x9d57cefd
    4d14:	e75ed69b 	.word	0xe75ed69b
    4d18:	d6dddefd 	.word	0xd6dddefd
    4d1c:	d6ded6dd 	.word	0xd6ded6dd
    4d20:	d6decede 	.word	0xd6decede
    4d24:	cedecede 	.word	0xcedecede
    4d28:	cedecede 	.word	0xcedecede
    4d2c:	ceddcedd 	.word	0xceddcedd
    4d30:	d6ddd6dd 	.word	0xd6ddd6dd
    4d34:	d6fed6de 	.word	0xd6fed6de
    4d38:	d6fed6de 	.word	0xd6fed6de
    4d3c:	d6fed6fe 	.word	0xd6fed6fe
    4d40:	d6fedf3f 	.word	0xd6fedf3f
    4d44:	df1edf3f 	.word	0xdf1edf3f
    4d48:	e75fce9c 	.word	0xe75fce9c
    4d4c:	e75edf1e 	.word	0xe75edf1e
    4d50:	ce9be71e 	.word	0xce9be71e
    4d54:	e75ee71e 	.word	0xe75ee71e
    4d58:	ef7fe75e 	.word	0xef7fe75e
    4d5c:	e75eef5e 	.word	0xe75eef5e
    4d60:	ef5eef5e 	.word	0xef5eef5e
    4d64:	ef7eef7f 	.word	0xef7eef7f
    4d68:	ef7eef7e 	.word	0xef7eef7e
    4d6c:	ef9fef9f 	.word	0xef9fef9f
    4d70:	ef9fef9f 	.word	0xef9fef9f
    4d74:	f7bfef9e 	.word	0xf7bfef9e
    4d78:	f79ff79f 	.word	0xf79ff79f
    4d7c:	f79ef7bf 	.word	0xf79ef7bf
    4d80:	ef3df79f 	.word	0xef3df79f
    4d84:	f7bff79f 	.word	0xf7bff79f
    4d88:	ffbff7bf 	.word	0xffbff7bf
    4d8c:	f7bff7bf 	.word	0xf7bff7bf
    4d90:	f7bff7bf 	.word	0xf7bff7bf
    4d94:	ffbff7bf 	.word	0xffbff7bf
    4d98:	ffbfffbf 	.word	0xffbfffbf
    4d9c:	ffdfffdf 	.word	0xffdfffdf
    4da0:	f79effbf 	.word	0xf79effbf
    4da4:	ffdfffbf 	.word	0xffdfffbf
    4da8:	ffdfffdf 	.word	0xffdfffdf
    4dac:	ffbfffbf 	.word	0xffbfffbf
    4db0:	ffdfffdf 	.word	0xffdfffdf
    4db4:	ffbeffbe 	.word	0xffbeffbe
    4db8:	f79ef7be 	.word	0xf79ef7be
    4dbc:	f79ef79e 	.word	0xf79ef79e
    4dc0:	f7bef79e 	.word	0xf7bef79e
    4dc4:	f79ef79e 	.word	0xf79ef79e
    4dc8:	f79ef79e 	.word	0xf79ef79e
    4dcc:	f79ef79e 	.word	0xf79ef79e
    4dd0:	f7bef79e 	.word	0xf7bef79e
    4dd4:	f79ef79e 	.word	0xf79ef79e
    4dd8:	f79ef79e 	.word	0xf79ef79e
    4ddc:	f79ef79e 	.word	0xf79ef79e
    4de0:	f79ef79e 	.word	0xf79ef79e
    4de4:	f79ef79e 	.word	0xf79ef79e
    4de8:	f79ef79e 	.word	0xf79ef79e
    4dec:	f79ef79e 	.word	0xf79ef79e
    4df0:	f79ef79e 	.word	0xf79ef79e
    4df4:	f79ef79e 	.word	0xf79ef79e
    4df8:	f79ef79e 	.word	0xf79ef79e
    4dfc:	f79ef79e 	.word	0xf79ef79e
    4e00:	f79ef79e 	.word	0xf79ef79e
    4e04:	f79ef79e 	.word	0xf79ef79e
    4e08:	f79ef79e 	.word	0xf79ef79e
    4e0c:	f79ef79e 	.word	0xf79ef79e
    4e10:	f79ef79e 	.word	0xf79ef79e
    4e14:	f79ef79e 	.word	0xf79ef79e
    4e18:	f79ef79e 	.word	0xf79ef79e
    4e1c:	f79ef79e 	.word	0xf79ef79e
    4e20:	f79ef79e 	.word	0xf79ef79e
    4e24:	f79ef79e 	.word	0xf79ef79e
    4e28:	f79ef79e 	.word	0xf79ef79e
    4e2c:	f79ef79e 	.word	0xf79ef79e
    4e30:	f79ef79e 	.word	0xf79ef79e
    4e34:	f79ef79e 	.word	0xf79ef79e
    4e38:	f79ef79e 	.word	0xf79ef79e
    4e3c:	f79ef79e 	.word	0xf79ef79e
    4e40:	f79ef79e 	.word	0xf79ef79e
    4e44:	f79ef79e 	.word	0xf79ef79e
    4e48:	f79ef79e 	.word	0xf79ef79e
    4e4c:	f79ef79e 	.word	0xf79ef79e
    4e50:	f79ef79e 	.word	0xf79ef79e
    4e54:	f79ef79e 	.word	0xf79ef79e
    4e58:	f79ef79e 	.word	0xf79ef79e
    4e5c:	f79ef79e 	.word	0xf79ef79e
    4e60:	ff9eff9e 	.word	0xff9eff9e
    4e64:	f79df77d 	.word	0xf79df77d
    4e68:	f79ef79d 	.word	0xf79ef79d
    4e6c:	e77ef7df 	.word	0xe77ef7df
    4e70:	be5bc69c 	.word	0xbe5bc69c
    4e74:	be9cbe7c 	.word	0xbe9cbe7c
    4e78:	be9dbe9d 	.word	0xbe9dbe9d
    4e7c:	c6bdc6bd 	.word	0xc6bdc6bd
    4e80:	c6bdc6bd 	.word	0xc6bdc6bd
    4e84:	c6bdc6bd 	.word	0xc6bdc6bd
    4e88:	c6bdc6bd 	.word	0xc6bdc6bd
    4e8c:	c6bdc6bd 	.word	0xc6bdc6bd
    4e90:	c6ddc6dd 	.word	0xc6ddc6dd
    4e94:	c6ddc6dd 	.word	0xc6ddc6dd
    4e98:	c6ddc6dd 	.word	0xc6ddc6dd
    4e9c:	c6ddc6dd 	.word	0xc6ddc6dd
    4ea0:	c6ddc6dd 	.word	0xc6ddc6dd
    4ea4:	c6ddc6dd 	.word	0xc6ddc6dd
    4ea8:	c6ddc6dd 	.word	0xc6ddc6dd
    4eac:	c6ddc6dd 	.word	0xc6ddc6dd
    4eb0:	c6ddc6dd 	.word	0xc6ddc6dd
    4eb4:	c6ddc6dd 	.word	0xc6ddc6dd
    4eb8:	c6ddc6dd 	.word	0xc6ddc6dd
    4ebc:	c6ddc6dd 	.word	0xc6ddc6dd
    4ec0:	c6ddc6dd 	.word	0xc6ddc6dd
    4ec4:	c6bdc6dd 	.word	0xc6bdc6dd
    4ec8:	c6bdc6bd 	.word	0xc6bdc6bd
    4ecc:	c6bdc6bd 	.word	0xc6bdc6bd
    4ed0:	c6bdc6bd 	.word	0xc6bdc6bd
    4ed4:	c6ddc6bd 	.word	0xc6ddc6bd
    4ed8:	c6bdc6dd 	.word	0xc6bdc6dd
    4edc:	c6bdc6bd 	.word	0xc6bdc6bd
    4ee0:	cefecedd 	.word	0xcefecedd
    4ee4:	d6fed6fe 	.word	0xd6fed6fe
    4ee8:	d71ed71e 	.word	0xd71ed71e
    4eec:	d71ed71e 	.word	0xd71ed71e
    4ef0:	d71ed71e 	.word	0xd71ed71e
    4ef4:	d71ecefd 	.word	0xd71ecefd
    4ef8:	d71ed71e 	.word	0xd71ed71e
    4efc:	d71ecefd 	.word	0xd71ecefd
    4f00:	cefdd71e 	.word	0xcefdd71e
    4f04:	d71ecefd 	.word	0xd71ecefd
    4f08:	d71ebe5b 	.word	0xd71ebe5b
    4f0c:	d71ed6fe 	.word	0xd71ed6fe
    4f10:	d71ecefd 	.word	0xd71ecefd
    4f14:	d6fed6fe 	.word	0xd6fed6fe
    4f18:	d6fed6fe 	.word	0xd6fed6fe
    4f1c:	d6fed6fe 	.word	0xd6fed6fe
    4f20:	d6fed6fe 	.word	0xd6fed6fe
    4f24:	d71ed71e 	.word	0xd71ed71e
    4f28:	d71ecefd 	.word	0xd71ecefd
    4f2c:	d71ed73e 	.word	0xd71ed73e
    4f30:	d71ed6fd 	.word	0xd71ed6fd
    4f34:	d71ed71e 	.word	0xd71ed71e
    4f38:	df5fcedd 	.word	0xdf5fcedd
    4f3c:	c6bccefd 	.word	0xc6bccefd
    4f40:	d6fecedd 	.word	0xd6fecedd
    4f44:	c6bdcedd 	.word	0xc6bdcedd
    4f48:	c6bdc6bd 	.word	0xc6bdc6bd
    4f4c:	c6ddc6bd 	.word	0xc6ddc6bd
    4f50:	c6ddc6bd 	.word	0xc6ddc6bd
    4f54:	c6ddc6dd 	.word	0xc6ddc6dd
    4f58:	c6ddc6dd 	.word	0xc6ddc6dd
    4f5c:	c6ddc6dd 	.word	0xc6ddc6dd
    4f60:	c6ddc6dd 	.word	0xc6ddc6dd
    4f64:	c6ddc6dd 	.word	0xc6ddc6dd
    4f68:	c6ddc6dd 	.word	0xc6ddc6dd
    4f6c:	c6ddc6dd 	.word	0xc6ddc6dd
    4f70:	c6ddc6dd 	.word	0xc6ddc6dd
    4f74:	c6ddc6dd 	.word	0xc6ddc6dd
    4f78:	c6ddc6dd 	.word	0xc6ddc6dd
    4f7c:	c6ddc6dd 	.word	0xc6ddc6dd
    4f80:	c6ddc6dd 	.word	0xc6ddc6dd
    4f84:	c6ddc6dd 	.word	0xc6ddc6dd
    4f88:	c6ddc6dd 	.word	0xc6ddc6dd
    4f8c:	ceddc6bd 	.word	0xceddc6bd
    4f90:	9d57d6dd 	.word	0x9d57d6dd
    4f94:	defdd69c 	.word	0xdefdd69c
    4f98:	d6ddd6dd 	.word	0xd6ddd6dd
    4f9c:	d6ddd6fe 	.word	0xd6ddd6fe
    4fa0:	d6decede 	.word	0xd6decede
    4fa4:	cedecede 	.word	0xcedecede
    4fa8:	cedecede 	.word	0xcedecede
    4fac:	ceddcede 	.word	0xceddcede
    4fb0:	ceddcedd 	.word	0xceddcedd
    4fb4:	ceded6fe 	.word	0xceded6fe
    4fb8:	d6fed6fe 	.word	0xd6fed6fe
    4fbc:	d71ed6fe 	.word	0xd71ed6fe
    4fc0:	df3ed6fe 	.word	0xdf3ed6fe
    4fc4:	c65bdf1e 	.word	0xc65bdf1e
    4fc8:	defee73f 	.word	0xdefee73f
    4fcc:	df1edf1e 	.word	0xdf1edf1e
    4fd0:	e75ee73e 	.word	0xe75ee73e
    4fd4:	defdd6bc 	.word	0xdefdd6bc
    4fd8:	e75fe75e 	.word	0xe75fe75e
    4fdc:	ef9fe73e 	.word	0xef9fe73e
    4fe0:	ef7fe75e 	.word	0xef7fe75e
    4fe4:	ef7eef7e 	.word	0xef7eef7e
    4fe8:	ef7fef7f 	.word	0xef7fef7f
    4fec:	ef9fef9f 	.word	0xef9fef9f
    4ff0:	ef7eef9f 	.word	0xef7eef9f
    4ff4:	f79fef9e 	.word	0xf79fef9e
    4ff8:	f79fef9e 	.word	0xf79fef9e
    4ffc:	f79ff7bf 	.word	0xf79ff7bf
    5000:	ef7eef5e 	.word	0xef7eef5e
    5004:	f79ff79f 	.word	0xf79ff79f
    5008:	ffbff7bf 	.word	0xffbff7bf
    500c:	f7bff7bf 	.word	0xf7bff7bf
    5010:	f7bff7bf 	.word	0xf7bff7bf
    5014:	f7bff7bf 	.word	0xf7bff7bf
    5018:	ffdff7bf 	.word	0xffdff7bf
    501c:	ffbfffdf 	.word	0xffbfffdf
    5020:	ffdfffbf 	.word	0xffdfffbf
    5024:	ffdfffdf 	.word	0xffdfffdf
    5028:	ffbfffdf 	.word	0xffbfffdf
    502c:	ffdfffbf 	.word	0xffdfffbf
    5030:	ffbfffbf 	.word	0xffbfffbf
    5034:	ffdfffdf 	.word	0xffdfffdf
    5038:	f7beffbe 	.word	0xf7beffbe
    503c:	f79ef79e 	.word	0xf79ef79e
    5040:	f7bef79e 	.word	0xf7bef79e
    5044:	f79ef79e 	.word	0xf79ef79e
    5048:	f79ef79e 	.word	0xf79ef79e
    504c:	f79ef79e 	.word	0xf79ef79e
    5050:	f7bef7be 	.word	0xf7bef7be
    5054:	f79ef79e 	.word	0xf79ef79e
    5058:	f79ef79e 	.word	0xf79ef79e
    505c:	f79ef79e 	.word	0xf79ef79e
    5060:	f79ef79e 	.word	0xf79ef79e
    5064:	f79ef79e 	.word	0xf79ef79e
    5068:	f79ef79e 	.word	0xf79ef79e
    506c:	f79ef79e 	.word	0xf79ef79e
    5070:	f79ef79e 	.word	0xf79ef79e
    5074:	f79ef79e 	.word	0xf79ef79e
    5078:	f79ef79e 	.word	0xf79ef79e
    507c:	f79ef79e 	.word	0xf79ef79e
    5080:	f79ef79e 	.word	0xf79ef79e
    5084:	f79ef79e 	.word	0xf79ef79e
    5088:	f79ef79e 	.word	0xf79ef79e
    508c:	f79ef79e 	.word	0xf79ef79e
    5090:	f79ef79e 	.word	0xf79ef79e
    5094:	f79ef79e 	.word	0xf79ef79e
    5098:	f79ef79e 	.word	0xf79ef79e
    509c:	f79ef79e 	.word	0xf79ef79e
    50a0:	f79ef79e 	.word	0xf79ef79e
    50a4:	f79ef79e 	.word	0xf79ef79e
    50a8:	f79ef79e 	.word	0xf79ef79e
    50ac:	f79ef79e 	.word	0xf79ef79e
    50b0:	f79ef79e 	.word	0xf79ef79e
    50b4:	f79ef79e 	.word	0xf79ef79e
    50b8:	f79ef79e 	.word	0xf79ef79e
    50bc:	f79ef79e 	.word	0xf79ef79e
    50c0:	f79ef79e 	.word	0xf79ef79e
    50c4:	f79ef79e 	.word	0xf79ef79e
    50c8:	f79ef79e 	.word	0xf79ef79e
    50cc:	f79ef79e 	.word	0xf79ef79e
    50d0:	f79ef79e 	.word	0xf79ef79e
    50d4:	f79ef79e 	.word	0xf79ef79e
    50d8:	f79ef79e 	.word	0xf79ef79e
    50dc:	f79ef79e 	.word	0xf79ef79e
    50e0:	ff9eff9e 	.word	0xff9eff9e
    50e4:	f77df77d 	.word	0xf77df77d
    50e8:	f7bef79d 	.word	0xf7bef79d
    50ec:	e77ef7df 	.word	0xe77ef7df
    50f0:	be5bc69c 	.word	0xbe5bc69c
    50f4:	be9cbe7c 	.word	0xbe9cbe7c
    50f8:	c6bdbe9d 	.word	0xc6bdbe9d
    50fc:	c6bdc6bd 	.word	0xc6bdc6bd
    5100:	c6bdc6bd 	.word	0xc6bdc6bd
    5104:	c6bdc6bd 	.word	0xc6bdc6bd
    5108:	c6bdc6bd 	.word	0xc6bdc6bd
    510c:	c6bdc6bd 	.word	0xc6bdc6bd
    5110:	c6ddc6dd 	.word	0xc6ddc6dd
    5114:	c6bdc6bd 	.word	0xc6bdc6bd
    5118:	c6bdc6bd 	.word	0xc6bdc6bd
    511c:	c6bdc6bd 	.word	0xc6bdc6bd
    5120:	c6bdc6bd 	.word	0xc6bdc6bd
    5124:	c6bdc6bd 	.word	0xc6bdc6bd
    5128:	c6bdc6bd 	.word	0xc6bdc6bd
    512c:	c6bdc6bd 	.word	0xc6bdc6bd
    5130:	c6bdc6bd 	.word	0xc6bdc6bd
    5134:	c6bdc6bd 	.word	0xc6bdc6bd
    5138:	c6bdc6bd 	.word	0xc6bdc6bd
    513c:	c6bdc6bd 	.word	0xc6bdc6bd
    5140:	c6bdc6bd 	.word	0xc6bdc6bd
    5144:	c6bdcedd 	.word	0xc6bdcedd
    5148:	c6bdc6bd 	.word	0xc6bdc6bd
    514c:	c6bdc6bd 	.word	0xc6bdc6bd
    5150:	c6bdc6bd 	.word	0xc6bdc6bd
    5154:	c6bdcedd 	.word	0xc6bdcedd
    5158:	c6bdc6bd 	.word	0xc6bdc6bd
    515c:	cefecedd 	.word	0xcefecedd
    5160:	d71ed6fe 	.word	0xd71ed6fe
    5164:	d6fed6fe 	.word	0xd6fed6fe
    5168:	d6fed6fe 	.word	0xd6fed6fe
    516c:	d6fed71e 	.word	0xd6fed71e
    5170:	d6fed6fe 	.word	0xd6fed6fe
    5174:	d71ed6fd 	.word	0xd71ed6fd
    5178:	d6fdd6fd 	.word	0xd6fdd6fd
    517c:	d6fdd71e 	.word	0xd6fdd71e
    5180:	d73ecefd 	.word	0xd73ecefd
    5184:	be5bcefd 	.word	0xbe5bcefd
    5188:	d71ed73e 	.word	0xd71ed73e
    518c:	d71ecefd 	.word	0xd71ecefd
    5190:	d6fed71e 	.word	0xd6fed71e
    5194:	d71ed71e 	.word	0xd71ed71e
    5198:	d71ed71e 	.word	0xd71ed71e
    519c:	d71ed71e 	.word	0xd71ed71e
    51a0:	d71ed71e 	.word	0xd71ed71e
    51a4:	cefdd6fd 	.word	0xcefdd6fd
    51a8:	d6fed6fe 	.word	0xd6fed6fe
    51ac:	d71ecefd 	.word	0xd71ecefd
    51b0:	cefdd71e 	.word	0xcefdd71e
    51b4:	d71ecefd 	.word	0xd71ecefd
    51b8:	a598be5b 	.word	0xa598be5b
    51bc:	d6fed71e 	.word	0xd6fed71e
    51c0:	cefdd71e 	.word	0xcefdd71e
    51c4:	ceddcefd 	.word	0xceddcefd
    51c8:	c6bdc6bd 	.word	0xc6bdc6bd
    51cc:	c6ddc6dd 	.word	0xc6ddc6dd
    51d0:	c6bdc6bd 	.word	0xc6bdc6bd
    51d4:	c6bdc6bd 	.word	0xc6bdc6bd
    51d8:	c6bdc6bd 	.word	0xc6bdc6bd
    51dc:	c6bdc6bd 	.word	0xc6bdc6bd
    51e0:	c6bdc6bd 	.word	0xc6bdc6bd
    51e4:	c6bdc6bd 	.word	0xc6bdc6bd
    51e8:	c6bdc6bd 	.word	0xc6bdc6bd
    51ec:	c6bdc6bd 	.word	0xc6bdc6bd
    51f0:	c6bdc6bd 	.word	0xc6bdc6bd
    51f4:	c6bdc6bd 	.word	0xc6bdc6bd
    51f8:	c6bdc6bd 	.word	0xc6bdc6bd
    51fc:	c6bdc6bd 	.word	0xc6bdc6bd
    5200:	c6bdc6bd 	.word	0xc6bdc6bd
    5204:	c6bdc6dd 	.word	0xc6bdc6dd
    5208:	c6ddc6dd 	.word	0xc6ddc6dd
    520c:	ceddc6bd 	.word	0xceddc6bd
    5210:	9d57d6dd 	.word	0x9d57d6dd
    5214:	defedefe 	.word	0xdefedefe
    5218:	d6fedefe 	.word	0xd6fedefe
    521c:	d6fdd6fe 	.word	0xd6fdd6fe
    5220:	d6decedd 	.word	0xd6decedd
    5224:	cedecede 	.word	0xcedecede
    5228:	cedecede 	.word	0xcedecede
    522c:	ceddcede 	.word	0xceddcede
    5230:	ceddcedd 	.word	0xceddcedd
    5234:	cedecedd 	.word	0xcedecedd
    5238:	d71fd6de 	.word	0xd71fd6de
    523c:	d6ded6fe 	.word	0xd6ded6fe
    5240:	cebdd71e 	.word	0xcebdd71e
    5244:	e75fbe5b 	.word	0xe75fbe5b
    5248:	df3ed6fe 	.word	0xdf3ed6fe
    524c:	e73fe73f 	.word	0xe73fe73f
    5250:	e73edf1e 	.word	0xe73edf1e
    5254:	defde73e 	.word	0xdefde73e
    5258:	e73ed6bc 	.word	0xe73ed6bc
    525c:	e75eef7f 	.word	0xe75eef7f
    5260:	e75ee75e 	.word	0xe75ee75e
    5264:	ef7ee75e 	.word	0xef7ee75e
    5268:	ef7fef7f 	.word	0xef7fef7f
    526c:	ef7eef7e 	.word	0xef7eef7e
    5270:	ef7eef7e 	.word	0xef7eef7e
    5274:	ef9eef9f 	.word	0xef9eef9f
    5278:	f79fef7e 	.word	0xf79fef7e
    527c:	ffbff77e 	.word	0xffbff77e
    5280:	f79fe6fc 	.word	0xf79fe6fc
    5284:	f79ff79f 	.word	0xf79ff79f
    5288:	f7bff79f 	.word	0xf7bff79f
    528c:	f7bff7bf 	.word	0xf7bff7bf
    5290:	f7bff7bf 	.word	0xf7bff7bf
    5294:	f7bff7bf 	.word	0xf7bff7bf
    5298:	ffbff7bf 	.word	0xffbff7bf
    529c:	f7bfffbf 	.word	0xf7bfffbf
    52a0:	ffdfffbf 	.word	0xffdfffbf
    52a4:	ffbfffbf 	.word	0xffbfffbf
    52a8:	ffbfffbf 	.word	0xffbfffbf
    52ac:	ffdfffbf 	.word	0xffdfffbf
    52b0:	ffbfffbf 	.word	0xffbfffbf
    52b4:	ffdfffdf 	.word	0xffdfffdf
    52b8:	ffbeffdf 	.word	0xffbeffdf
    52bc:	f79effbe 	.word	0xf79effbe
    52c0:	f79ef79e 	.word	0xf79ef79e
    52c4:	f79ef79e 	.word	0xf79ef79e
    52c8:	f79ef79e 	.word	0xf79ef79e
    52cc:	f79ef79e 	.word	0xf79ef79e
    52d0:	f79ef79e 	.word	0xf79ef79e
    52d4:	f79ef79e 	.word	0xf79ef79e
    52d8:	f79ef79e 	.word	0xf79ef79e
    52dc:	f79ef79e 	.word	0xf79ef79e
    52e0:	f79ef79e 	.word	0xf79ef79e
    52e4:	f79ef79e 	.word	0xf79ef79e
    52e8:	f79ef79e 	.word	0xf79ef79e
    52ec:	f79ef79e 	.word	0xf79ef79e
    52f0:	f79ef79e 	.word	0xf79ef79e
    52f4:	f79ef79e 	.word	0xf79ef79e
    52f8:	f79ef79e 	.word	0xf79ef79e
    52fc:	f79ef79e 	.word	0xf79ef79e
    5300:	f79ef79e 	.word	0xf79ef79e
    5304:	f79ef79e 	.word	0xf79ef79e
    5308:	f79ef79e 	.word	0xf79ef79e
    530c:	f79ef79e 	.word	0xf79ef79e
    5310:	f79ef79e 	.word	0xf79ef79e
    5314:	f79ef79e 	.word	0xf79ef79e
    5318:	f79ef79e 	.word	0xf79ef79e
    531c:	f79ef79e 	.word	0xf79ef79e
    5320:	f79ef79e 	.word	0xf79ef79e
    5324:	f79ef79e 	.word	0xf79ef79e
    5328:	f79ef79e 	.word	0xf79ef79e
    532c:	f79ef79e 	.word	0xf79ef79e
    5330:	f79ef79e 	.word	0xf79ef79e
    5334:	f79ef79e 	.word	0xf79ef79e
    5338:	f79ef79e 	.word	0xf79ef79e
    533c:	f79ef79e 	.word	0xf79ef79e
    5340:	f79ef79e 	.word	0xf79ef79e
    5344:	f79ef79e 	.word	0xf79ef79e
    5348:	f79ef79e 	.word	0xf79ef79e
    534c:	f79ef79e 	.word	0xf79ef79e
    5350:	f79ef79e 	.word	0xf79ef79e
    5354:	f79ef79e 	.word	0xf79ef79e
    5358:	f79ef79e 	.word	0xf79ef79e
    535c:	f79ef79e 	.word	0xf79ef79e
    5360:	ff9eff9e 	.word	0xff9eff9e
    5364:	f77df77d 	.word	0xf77df77d
    5368:	f7bef79d 	.word	0xf7bef79d
    536c:	e77ef7df 	.word	0xe77ef7df
    5370:	be7cc69c 	.word	0xbe7cc69c
    5374:	be9dbe9c 	.word	0xbe9dbe9c
    5378:	c6bdbe9d 	.word	0xc6bdbe9d
    537c:	c6bdc6bd 	.word	0xc6bdc6bd
    5380:	c6bdc6bd 	.word	0xc6bdc6bd
    5384:	c6bdc6bd 	.word	0xc6bdc6bd
    5388:	c6bdc6bd 	.word	0xc6bdc6bd
    538c:	c6bdc6bd 	.word	0xc6bdc6bd
    5390:	c6ddc6dd 	.word	0xc6ddc6dd
    5394:	c6ddc6dd 	.word	0xc6ddc6dd
    5398:	c6ddc6dd 	.word	0xc6ddc6dd
    539c:	c6ddc6dd 	.word	0xc6ddc6dd
    53a0:	c6ddc6dd 	.word	0xc6ddc6dd
    53a4:	c6ddc6dd 	.word	0xc6ddc6dd
    53a8:	c6ddc6dd 	.word	0xc6ddc6dd
    53ac:	c6ddc6dd 	.word	0xc6ddc6dd
    53b0:	c6ddc6dd 	.word	0xc6ddc6dd
    53b4:	c6ddc6dd 	.word	0xc6ddc6dd
    53b8:	c6ddc6dd 	.word	0xc6ddc6dd
    53bc:	c6ddc6dd 	.word	0xc6ddc6dd
    53c0:	c6ddc6dd 	.word	0xc6ddc6dd
    53c4:	c6ddcedd 	.word	0xc6ddcedd
    53c8:	c6ddc6dd 	.word	0xc6ddc6dd
    53cc:	ceddc6dd 	.word	0xceddc6dd
    53d0:	c6ddc6dd 	.word	0xc6ddc6dd
    53d4:	c6bdc6bd 	.word	0xc6bdc6bd
    53d8:	cefdc6dd 	.word	0xcefdc6dd
    53dc:	d71ed6fe 	.word	0xd71ed6fe
    53e0:	d6fed71e 	.word	0xd6fed71e
    53e4:	d6fed6fe 	.word	0xd6fed6fe
    53e8:	d6fed6fe 	.word	0xd6fed6fe
    53ec:	d6fed71e 	.word	0xd6fed71e
    53f0:	d6fed6fe 	.word	0xd6fed6fe
    53f4:	cefdd71e 	.word	0xcefdd71e
    53f8:	d6fdd71e 	.word	0xd6fdd71e
    53fc:	d71ecefd 	.word	0xd71ecefd
    5400:	c6bcd73e 	.word	0xc6bcd73e
    5404:	d73ec69c 	.word	0xd73ec69c
    5408:	d71ecefd 	.word	0xd71ecefd
    540c:	d6fed71e 	.word	0xd6fed71e
    5410:	d71ed71e 	.word	0xd71ed71e
    5414:	d71ed71e 	.word	0xd71ed71e
    5418:	d71ed71e 	.word	0xd71ed71e
    541c:	d71ed71e 	.word	0xd71ed71e
    5420:	d71ed71e 	.word	0xd71ed71e
    5424:	d71ed6fe 	.word	0xd71ed6fe
    5428:	d71ed71e 	.word	0xd71ed71e
    542c:	c69cd6fe 	.word	0xc69cd6fe
    5430:	d71ec69c 	.word	0xd71ec69c
    5434:	cebcd6fd 	.word	0xcebcd6fd
    5438:	ceddadb8 	.word	0xceddadb8
    543c:	cefdd6fd 	.word	0xcefdd6fd
    5440:	d71ed71e 	.word	0xd71ed71e
    5444:	cefed71e 	.word	0xcefed71e
    5448:	ceddcedd 	.word	0xceddcedd
    544c:	c6bdcebd 	.word	0xc6bdcebd
    5450:	ceddc6bd 	.word	0xceddc6bd
    5454:	c6ddc6dd 	.word	0xc6ddc6dd
    5458:	c6ddc6dd 	.word	0xc6ddc6dd
    545c:	c6ddc6dd 	.word	0xc6ddc6dd
    5460:	c6ddc6dd 	.word	0xc6ddc6dd
    5464:	c6ddc6dd 	.word	0xc6ddc6dd
    5468:	c6ddc6dd 	.word	0xc6ddc6dd
    546c:	c6ddc6dd 	.word	0xc6ddc6dd
    5470:	c6ddc6dd 	.word	0xc6ddc6dd
    5474:	c6ddc6dd 	.word	0xc6ddc6dd
    5478:	c6ddc6dd 	.word	0xc6ddc6dd
    547c:	c6ddc6dd 	.word	0xc6ddc6dd
    5480:	c6ddc6dd 	.word	0xc6ddc6dd
    5484:	c6ddc6dd 	.word	0xc6ddc6dd
    5488:	ceddc6dd 	.word	0xceddc6dd
    548c:	ceddc6bd 	.word	0xceddc6bd
    5490:	9d57d6fd 	.word	0x9d57d6fd
    5494:	defedf1f 	.word	0xdefedf1f
    5498:	defedf1e 	.word	0xdefedf1e
    549c:	d6fed6fe 	.word	0xd6fed6fe
    54a0:	d6fed6fe 	.word	0xd6fed6fe
    54a4:	d6ded6de 	.word	0xd6ded6de
    54a8:	ceded6de 	.word	0xceded6de
    54ac:	ceddcede 	.word	0xceddcede
    54b0:	ceddcedd 	.word	0xceddcedd
    54b4:	d6decedd 	.word	0xd6decedd
    54b8:	b5facebd 	.word	0xb5facebd
    54bc:	d71ecedd 	.word	0xd71ecedd
    54c0:	ce9cc69c 	.word	0xce9cc69c
    54c4:	d6fddf3f 	.word	0xd6fddf3f
    54c8:	d71ed71e 	.word	0xd71ed71e
    54cc:	df1edf3e 	.word	0xdf1edf3e
    54d0:	df1edf1e 	.word	0xdf1edf1e
    54d4:	e73ee75e 	.word	0xe73ee75e
    54d8:	d6dce73e 	.word	0xd6dce73e
    54dc:	e75ed6dd 	.word	0xe75ed6dd
    54e0:	e75ee75f 	.word	0xe75ee75f
    54e4:	e75ee75e 	.word	0xe75ee75e
    54e8:	ef5eef7e 	.word	0xef5eef7e
    54ec:	ef7eef5e 	.word	0xef7eef5e
    54f0:	ef9fef7f 	.word	0xef9fef7f
    54f4:	ef7eef9f 	.word	0xef7eef9f
    54f8:	f79fef7e 	.word	0xf79fef7e
    54fc:	f79fef7e 	.word	0xf79fef7e
    5500:	ffbfe6fc 	.word	0xffbfe6fc
    5504:	f79ff79f 	.word	0xf79ff79f
    5508:	f79ff79f 	.word	0xf79ff79f
    550c:	f7bff7bf 	.word	0xf7bff7bf
    5510:	f7bff7bf 	.word	0xf7bff7bf
    5514:	f7bff7bf 	.word	0xf7bff7bf
    5518:	f7bff7bf 	.word	0xf7bff7bf
    551c:	f7bff7bf 	.word	0xf7bff7bf
    5520:	ffbfffbf 	.word	0xffbfffbf
    5524:	ffbfffbf 	.word	0xffbfffbf
    5528:	ffbfffbf 	.word	0xffbfffbf
    552c:	ffdfffdf 	.word	0xffdfffdf
    5530:	ffdfffdf 	.word	0xffdfffdf
    5534:	ffdfffdf 	.word	0xffdfffdf
    5538:	ffdfffdf 	.word	0xffdfffdf
    553c:	ffbeffdf 	.word	0xffbeffdf
    5540:	f79ef7be 	.word	0xf79ef7be
    5544:	f79ef79e 	.word	0xf79ef79e
    5548:	f79ef79e 	.word	0xf79ef79e
    554c:	f79ef79e 	.word	0xf79ef79e
    5550:	f79ef79e 	.word	0xf79ef79e
    5554:	f79ef79e 	.word	0xf79ef79e
    5558:	f79ef79e 	.word	0xf79ef79e
    555c:	f79ef79e 	.word	0xf79ef79e
    5560:	f79ef79e 	.word	0xf79ef79e
    5564:	f79ef79e 	.word	0xf79ef79e
    5568:	f79ef79e 	.word	0xf79ef79e
    556c:	f79ef79e 	.word	0xf79ef79e
    5570:	f79ef79e 	.word	0xf79ef79e
    5574:	f79ef79e 	.word	0xf79ef79e
    5578:	f79ef79e 	.word	0xf79ef79e
    557c:	f79ef79e 	.word	0xf79ef79e
    5580:	f79ef79e 	.word	0xf79ef79e
    5584:	f79ef79e 	.word	0xf79ef79e
    5588:	f79ef79e 	.word	0xf79ef79e
    558c:	f79ef79e 	.word	0xf79ef79e
    5590:	f79ef79e 	.word	0xf79ef79e
    5594:	f79ef79e 	.word	0xf79ef79e
    5598:	f79ef79e 	.word	0xf79ef79e
    559c:	f79ef79e 	.word	0xf79ef79e
    55a0:	f79ef79e 	.word	0xf79ef79e
    55a4:	f79ef79e 	.word	0xf79ef79e
    55a8:	f79ef79e 	.word	0xf79ef79e
    55ac:	f79ef79e 	.word	0xf79ef79e
    55b0:	f79ef79e 	.word	0xf79ef79e
    55b4:	f79ef79e 	.word	0xf79ef79e
    55b8:	f79ef79e 	.word	0xf79ef79e
    55bc:	f79ef79e 	.word	0xf79ef79e
    55c0:	f79ef79e 	.word	0xf79ef79e
    55c4:	f79ef79e 	.word	0xf79ef79e
    55c8:	f79ef79e 	.word	0xf79ef79e
    55cc:	f79ef79e 	.word	0xf79ef79e
    55d0:	f79ef79e 	.word	0xf79ef79e
    55d4:	f79ef79e 	.word	0xf79ef79e
    55d8:	f79ef79e 	.word	0xf79ef79e
    55dc:	f79ef79e 	.word	0xf79ef79e
    55e0:	ff9eff9e 	.word	0xff9eff9e
    55e4:	f77df79d 	.word	0xf77df79d
    55e8:	f7bef79d 	.word	0xf7bef79d
    55ec:	e77ef7df 	.word	0xe77ef7df
    55f0:	be7cc69c 	.word	0xbe7cc69c
    55f4:	c69dc69d 	.word	0xc69dc69d
    55f8:	c6bdc6bd 	.word	0xc6bdc6bd
    55fc:	c6bdc6bd 	.word	0xc6bdc6bd
    5600:	c6bdc6bd 	.word	0xc6bdc6bd
    5604:	c6bdc6bd 	.word	0xc6bdc6bd
    5608:	c6ddc6bd 	.word	0xc6ddc6bd
    560c:	c6ddc6dd 	.word	0xc6ddc6dd
    5610:	ceddc6dd 	.word	0xceddc6dd
    5614:	ceddcedd 	.word	0xceddcedd
    5618:	ceddcedd 	.word	0xceddcedd
    561c:	ceddcedd 	.word	0xceddcedd
    5620:	ceddcedd 	.word	0xceddcedd
    5624:	ceddcedd 	.word	0xceddcedd
    5628:	ceddcedd 	.word	0xceddcedd
    562c:	ceddcedd 	.word	0xceddcedd
    5630:	ceddcedd 	.word	0xceddcedd
    5634:	ceddcedd 	.word	0xceddcedd
    5638:	ceddcedd 	.word	0xceddcedd
    563c:	ceddcedd 	.word	0xceddcedd
    5640:	ceddcedd 	.word	0xceddcedd
    5644:	ceddcedd 	.word	0xceddcedd
    5648:	ceddcedd 	.word	0xceddcedd
    564c:	c6ddcedd 	.word	0xc6ddcedd
    5650:	c6ddc6dd 	.word	0xc6ddc6dd
    5654:	ceddc6bd 	.word	0xceddc6bd
    5658:	d71ed71e 	.word	0xd71ed71e
    565c:	d71ed71e 	.word	0xd71ed71e
    5660:	d71ed71e 	.word	0xd71ed71e
    5664:	d71ed71e 	.word	0xd71ed71e
    5668:	d71ed71e 	.word	0xd71ed71e
    566c:	d71ed71e 	.word	0xd71ed71e
    5670:	d71ed71e 	.word	0xd71ed71e
    5674:	d73ed71e 	.word	0xd73ed71e
    5678:	d73ecefd 	.word	0xd73ecefd
    567c:	d73ed71e 	.word	0xd73ed71e
    5680:	c69cc6bc 	.word	0xc69cc6bc
    5684:	d71ed71e 	.word	0xd71ed71e
    5688:	d71ed71e 	.word	0xd71ed71e
    568c:	d73ed71e 	.word	0xd73ed71e
    5690:	d71ed6fe 	.word	0xd71ed6fe
    5694:	d71ed71e 	.word	0xd71ed71e
    5698:	d71ed71e 	.word	0xd71ed71e
    569c:	d71ed71e 	.word	0xd71ed71e
    56a0:	d71ed71e 	.word	0xd71ed71e
    56a4:	d6fdd71e 	.word	0xd6fdd71e
    56a8:	d71ed71e 	.word	0xd71ed71e
    56ac:	d71ecefd 	.word	0xd71ecefd
    56b0:	cebcd71e 	.word	0xcebcd71e
    56b4:	d6fdcedd 	.word	0xd6fdcedd
    56b8:	d71ed71e 	.word	0xd71ed71e
    56bc:	d71edf3e 	.word	0xd71edf3e
    56c0:	d73ecedd 	.word	0xd73ecedd
    56c4:	d71ed71e 	.word	0xd71ed71e
    56c8:	cefdd6fe 	.word	0xcefdd6fe
    56cc:	c6bccebd 	.word	0xc6bccebd
    56d0:	ceddc6bd 	.word	0xceddc6bd
    56d4:	ceddcedd 	.word	0xceddcedd
    56d8:	ceddcedd 	.word	0xceddcedd
    56dc:	ceddcedd 	.word	0xceddcedd
    56e0:	ceddcedd 	.word	0xceddcedd
    56e4:	ceddcedd 	.word	0xceddcedd
    56e8:	ceddcedd 	.word	0xceddcedd
    56ec:	ceddcedd 	.word	0xceddcedd
    56f0:	ceddcedd 	.word	0xceddcedd
    56f4:	c6ddc6dd 	.word	0xc6ddc6dd
    56f8:	ceddcedd 	.word	0xceddcedd
    56fc:	ceddcedd 	.word	0xceddcedd
    5700:	ceddcedd 	.word	0xceddcedd
    5704:	c6ddc6dd 	.word	0xc6ddc6dd
    5708:	ceddcedd 	.word	0xceddcedd
    570c:	ceddcebd 	.word	0xceddcebd
    5710:	9d57d6fd 	.word	0x9d57d6fd
    5714:	defedf1f 	.word	0xdefedf1f
    5718:	defedf1e 	.word	0xdefedf1e
    571c:	d71ed71e 	.word	0xd71ed71e
    5720:	d6fed6fe 	.word	0xd6fed6fe
    5724:	d6fed6fe 	.word	0xd6fed6fe
    5728:	d6ded6de 	.word	0xd6ded6de
    572c:	cedecede 	.word	0xcedecede
    5730:	cedecede 	.word	0xcedecede
    5734:	d6decebd 	.word	0xd6decebd
    5738:	ceded6de 	.word	0xceded6de
    573c:	be5bb61a 	.word	0xbe5bb61a
    5740:	d71ecedd 	.word	0xd71ecedd
    5744:	df1ecedd 	.word	0xdf1ecedd
    5748:	d6fddf1e 	.word	0xd6fddf1e
    574c:	df3fdf1e 	.word	0xdf3fdf1e
    5750:	df3edf1e 	.word	0xdf3edf1e
    5754:	e73edf1e 	.word	0xe73edf1e
    5758:	df3ee73e 	.word	0xdf3ee73e
    575c:	d6bcdf1d 	.word	0xd6bcdf1d
    5760:	ef7fe73e 	.word	0xef7fe73e
    5764:	e77fe77f 	.word	0xe77fe77f
    5768:	e75eef5e 	.word	0xe75eef5e
    576c:	ef7fef5e 	.word	0xef7fef5e
    5770:	ef7eef7f 	.word	0xef7eef7f
    5774:	ef7eef7e 	.word	0xef7eef7e
    5778:	f77fef7e 	.word	0xf77fef7e
    577c:	ef3df79f 	.word	0xef3df79f
    5780:	f79fef5e 	.word	0xf79fef5e
    5784:	f79ff79f 	.word	0xf79ff79f
    5788:	f79ff79f 	.word	0xf79ff79f
    578c:	f7bff79f 	.word	0xf7bff79f
    5790:	f7bff7bf 	.word	0xf7bff7bf
    5794:	f7bff7bf 	.word	0xf7bff7bf
    5798:	f7bff7bf 	.word	0xf7bff7bf
    579c:	f7bff7bf 	.word	0xf7bff7bf
    57a0:	ffbfffbf 	.word	0xffbfffbf
    57a4:	ffdfffdf 	.word	0xffdfffdf
    57a8:	ffbfffbf 	.word	0xffbfffbf
    57ac:	ffbfffbf 	.word	0xffbfffbf
    57b0:	ffdfffdf 	.word	0xffdfffdf
    57b4:	ffdfffdf 	.word	0xffdfffdf
    57b8:	ffdfffbe 	.word	0xffdfffbe
    57bc:	ffdfffdf 	.word	0xffdfffdf
    57c0:	ffbeffbe 	.word	0xffbeffbe
    57c4:	f79ef79e 	.word	0xf79ef79e
    57c8:	f79ef79e 	.word	0xf79ef79e
    57cc:	f79ef79e 	.word	0xf79ef79e
    57d0:	f79ef79e 	.word	0xf79ef79e
    57d4:	f79ef79e 	.word	0xf79ef79e
    57d8:	f79ef79e 	.word	0xf79ef79e
    57dc:	f79ef79e 	.word	0xf79ef79e
    57e0:	f79ef79e 	.word	0xf79ef79e
    57e4:	f79ef79e 	.word	0xf79ef79e
    57e8:	f79ef79e 	.word	0xf79ef79e
    57ec:	f79ef79e 	.word	0xf79ef79e
    57f0:	f79ef79e 	.word	0xf79ef79e
    57f4:	f79ef79e 	.word	0xf79ef79e
    57f8:	f79ef79e 	.word	0xf79ef79e
    57fc:	f79ef79e 	.word	0xf79ef79e
    5800:	f79ef79e 	.word	0xf79ef79e
    5804:	f79ef79e 	.word	0xf79ef79e
    5808:	f79ef79e 	.word	0xf79ef79e
    580c:	f79ef79e 	.word	0xf79ef79e
    5810:	f79ef79e 	.word	0xf79ef79e
    5814:	f79ef79e 	.word	0xf79ef79e
    5818:	f79ef79e 	.word	0xf79ef79e
    581c:	f79ef79e 	.word	0xf79ef79e
    5820:	f79ef79e 	.word	0xf79ef79e
    5824:	f79ef79e 	.word	0xf79ef79e
    5828:	f79ef79e 	.word	0xf79ef79e
    582c:	f79ef79e 	.word	0xf79ef79e
    5830:	f79ef79e 	.word	0xf79ef79e
    5834:	f79ef79e 	.word	0xf79ef79e
    5838:	f79ef79e 	.word	0xf79ef79e
    583c:	f79ef79e 	.word	0xf79ef79e
    5840:	f79ef79e 	.word	0xf79ef79e
    5844:	f79ef79e 	.word	0xf79ef79e
    5848:	f79ef79e 	.word	0xf79ef79e
    584c:	f79ef79e 	.word	0xf79ef79e
    5850:	f79ef79e 	.word	0xf79ef79e
    5854:	f79ef79e 	.word	0xf79ef79e
    5858:	f79ef79e 	.word	0xf79ef79e
    585c:	f79ef79e 	.word	0xf79ef79e
    5860:	ff9eff9e 	.word	0xff9eff9e
    5864:	f77df79d 	.word	0xf77df79d
    5868:	f7bef79d 	.word	0xf7bef79d
    586c:	e77ef7df 	.word	0xe77ef7df
    5870:	be7cc69c 	.word	0xbe7cc69c
    5874:	c69dc69d 	.word	0xc69dc69d
    5878:	c6bdc6bd 	.word	0xc6bdc6bd
    587c:	c6bdc6bd 	.word	0xc6bdc6bd
    5880:	c6bdc6bd 	.word	0xc6bdc6bd
    5884:	c6bdc6bd 	.word	0xc6bdc6bd
    5888:	c6ddc6bd 	.word	0xc6ddc6bd
    588c:	ceddc6dd 	.word	0xceddc6dd
    5890:	ceddcedd 	.word	0xceddcedd
    5894:	ceddcedd 	.word	0xceddcedd
    5898:	ceddcedd 	.word	0xceddcedd
    589c:	ceddcedd 	.word	0xceddcedd
    58a0:	ceddcedd 	.word	0xceddcedd
    58a4:	ceddcedd 	.word	0xceddcedd
    58a8:	ceddcedd 	.word	0xceddcedd
    58ac:	ceddcedd 	.word	0xceddcedd
    58b0:	ceddcedd 	.word	0xceddcedd
    58b4:	ceddcedd 	.word	0xceddcedd
    58b8:	ceddcedd 	.word	0xceddcedd
    58bc:	ceddcedd 	.word	0xceddcedd
    58c0:	ceddcedd 	.word	0xceddcedd
    58c4:	ceddcedd 	.word	0xceddcedd
    58c8:	ceddcedd 	.word	0xceddcedd
    58cc:	c6ddc6dd 	.word	0xc6ddc6dd
    58d0:	ceddc6dd 	.word	0xceddc6dd
    58d4:	d6fecefd 	.word	0xd6fecefd
    58d8:	d71ed71e 	.word	0xd71ed71e
    58dc:	d71ed71e 	.word	0xd71ed71e
    58e0:	d71ed71e 	.word	0xd71ed71e
    58e4:	d71ed71e 	.word	0xd71ed71e
    58e8:	d71ed71e 	.word	0xd71ed71e
    58ec:	d71ed71e 	.word	0xd71ed71e
    58f0:	d71ed71e 	.word	0xd71ed71e
    58f4:	d6fed71e 	.word	0xd6fed71e
    58f8:	d6fed71e 	.word	0xd6fed71e
    58fc:	c67cdf5f 	.word	0xc67cdf5f
    5900:	d73ec6bc 	.word	0xd73ec6bc
    5904:	d73ed71e 	.word	0xd73ed71e
    5908:	d71ed6fe 	.word	0xd71ed6fe
    590c:	d71ed71e 	.word	0xd71ed71e
    5910:	d71ed6fd 	.word	0xd71ed6fd
    5914:	d71ed71e 	.word	0xd71ed71e
    5918:	d71ed71e 	.word	0xd71ed71e
    591c:	d71ed71e 	.word	0xd71ed71e
    5920:	d71ed71e 	.word	0xd71ed71e
    5924:	d71ed71e 	.word	0xd71ed71e
    5928:	d71ed6fd 	.word	0xd71ed6fd
    592c:	ceddd73e 	.word	0xceddd73e
    5930:	c6bcc69c 	.word	0xc6bcc69c
    5934:	d71ed71e 	.word	0xd71ed71e
    5938:	d6fed71e 	.word	0xd6fed71e
    593c:	cefdd71e 	.word	0xcefdd71e
    5940:	d71ed71e 	.word	0xd71ed71e
    5944:	d71ed71e 	.word	0xd71ed71e
    5948:	d6fed71e 	.word	0xd6fed71e
    594c:	c6bdcedd 	.word	0xc6bdcedd
    5950:	ceddc6bd 	.word	0xceddc6bd
    5954:	ceddcedd 	.word	0xceddcedd
    5958:	ceddcedd 	.word	0xceddcedd
    595c:	ceddcedd 	.word	0xceddcedd
    5960:	ceddcedd 	.word	0xceddcedd
    5964:	ceddcedd 	.word	0xceddcedd
    5968:	ceddcedd 	.word	0xceddcedd
    596c:	ceddcedd 	.word	0xceddcedd
    5970:	ceddcedd 	.word	0xceddcedd
    5974:	c6ddc6dd 	.word	0xc6ddc6dd
    5978:	ceddcedd 	.word	0xceddcedd
    597c:	ceddcedd 	.word	0xceddcedd
    5980:	ceddcedd 	.word	0xceddcedd
    5984:	c6ddc6dd 	.word	0xc6ddc6dd
    5988:	ceddcedd 	.word	0xceddcedd
    598c:	ceddcedd 	.word	0xceddcedd
    5990:	9d57d6fd 	.word	0x9d57d6fd
    5994:	df3edf3e 	.word	0xdf3edf3e
    5998:	df1edf3f 	.word	0xdf1edf3f
    599c:	d6fedf1e 	.word	0xd6fedf1e
    59a0:	d6dedefe 	.word	0xd6dedefe
    59a4:	d6fed6fe 	.word	0xd6fed6fe
    59a8:	d6ded6fe 	.word	0xd6ded6fe
    59ac:	ceded6de 	.word	0xceded6de
    59b0:	cedecede 	.word	0xcedecede
    59b4:	cebdd6de 	.word	0xcebdd6de
    59b8:	d6fecede 	.word	0xd6fecede
    59bc:	cedebe7c 	.word	0xcedebe7c
    59c0:	d6fecebd 	.word	0xd6fecebd
    59c4:	d6fed6fe 	.word	0xd6fed6fe
    59c8:	df1ed6fd 	.word	0xdf1ed6fd
    59cc:	d6fed71e 	.word	0xd6fed71e
    59d0:	df1ed71e 	.word	0xdf1ed71e
    59d4:	df1edf3e 	.word	0xdf1edf3e
    59d8:	e73ee73e 	.word	0xe73ee73e
    59dc:	df3ee73e 	.word	0xdf3ee73e
    59e0:	d6dcd6dd 	.word	0xd6dcd6dd
    59e4:	e75ee73e 	.word	0xe75ee73e
    59e8:	e75ee75e 	.word	0xe75ee75e
    59ec:	ef7eef5e 	.word	0xef7eef5e
    59f0:	ef5eef7e 	.word	0xef5eef7e
    59f4:	ef7eef7e 	.word	0xef7eef7e
    59f8:	ef7eef7e 	.word	0xef7eef7e
    59fc:	e6fcf79f 	.word	0xe6fcf79f
    5a00:	f77ef79f 	.word	0xf77ef79f
    5a04:	f79ff79f 	.word	0xf79ff79f
    5a08:	f79ff79f 	.word	0xf79ff79f
    5a0c:	f7bff79f 	.word	0xf7bff79f
    5a10:	f7bff7bf 	.word	0xf7bff7bf
    5a14:	f7bff7bf 	.word	0xf7bff7bf
    5a18:	f7bff7bf 	.word	0xf7bff7bf
    5a1c:	f7bff7bf 	.word	0xf7bff7bf
    5a20:	f7bfffbf 	.word	0xf7bfffbf
    5a24:	ffbfffdf 	.word	0xffbfffdf
    5a28:	ffbfffbf 	.word	0xffbfffbf
    5a2c:	f7beffbf 	.word	0xf7beffbf
    5a30:	ffdfffbf 	.word	0xffdfffbf
    5a34:	ffdfffdf 	.word	0xffdfffdf
    5a38:	ffdfffdf 	.word	0xffdfffdf
    5a3c:	ffdfffdf 	.word	0xffdfffdf
    5a40:	ffdfffdf 	.word	0xffdfffdf
    5a44:	f7bef7be 	.word	0xf7bef7be
    5a48:	f79ef79e 	.word	0xf79ef79e
    5a4c:	f79ef79e 	.word	0xf79ef79e
    5a50:	f79ef79e 	.word	0xf79ef79e
    5a54:	f79ef79e 	.word	0xf79ef79e
    5a58:	f79ef79e 	.word	0xf79ef79e
    5a5c:	f79ef79e 	.word	0xf79ef79e
    5a60:	f79ef79e 	.word	0xf79ef79e
    5a64:	f79ef79e 	.word	0xf79ef79e
    5a68:	f79ef79e 	.word	0xf79ef79e
    5a6c:	f79ef79e 	.word	0xf79ef79e
    5a70:	f79ef79e 	.word	0xf79ef79e
    5a74:	f79ef79e 	.word	0xf79ef79e
    5a78:	f79ef79e 	.word	0xf79ef79e
    5a7c:	f79ef79e 	.word	0xf79ef79e
    5a80:	f79ef79e 	.word	0xf79ef79e
    5a84:	f79ef79e 	.word	0xf79ef79e
    5a88:	f79ef79e 	.word	0xf79ef79e
    5a8c:	f79ef79e 	.word	0xf79ef79e
    5a90:	f79ef79e 	.word	0xf79ef79e
    5a94:	f79ef79e 	.word	0xf79ef79e
    5a98:	f79ef79e 	.word	0xf79ef79e
    5a9c:	f79ef79e 	.word	0xf79ef79e
    5aa0:	f79ef79e 	.word	0xf79ef79e
    5aa4:	f79ef79e 	.word	0xf79ef79e
    5aa8:	f79ef79e 	.word	0xf79ef79e
    5aac:	f79ef79e 	.word	0xf79ef79e
    5ab0:	f79ef79e 	.word	0xf79ef79e
    5ab4:	f79ef79e 	.word	0xf79ef79e
    5ab8:	f79ef79e 	.word	0xf79ef79e
    5abc:	f79ef79e 	.word	0xf79ef79e
    5ac0:	f79ef79e 	.word	0xf79ef79e
    5ac4:	f79ef79e 	.word	0xf79ef79e
    5ac8:	f79ef79e 	.word	0xf79ef79e
    5acc:	f79ef79e 	.word	0xf79ef79e
    5ad0:	f79ef79e 	.word	0xf79ef79e
    5ad4:	f79ef79e 	.word	0xf79ef79e
    5ad8:	f79ef79e 	.word	0xf79ef79e
    5adc:	f79ef79e 	.word	0xf79ef79e
    5ae0:	ff9eff9e 	.word	0xff9eff9e
    5ae4:	f77df79d 	.word	0xf77df79d
    5ae8:	f7bef79d 	.word	0xf7bef79d
    5aec:	e77ef7df 	.word	0xe77ef7df
    5af0:	c67cc69c 	.word	0xc67cc69c
    5af4:	c69dc69d 	.word	0xc69dc69d
    5af8:	c6bdc6bd 	.word	0xc6bdc6bd
    5afc:	c6bdc6bd 	.word	0xc6bdc6bd
    5b00:	c6bdc6bd 	.word	0xc6bdc6bd
    5b04:	c6bdc6bd 	.word	0xc6bdc6bd
    5b08:	c6ddc6bd 	.word	0xc6ddc6bd
    5b0c:	ceddcedd 	.word	0xceddcedd
    5b10:	ceddcedd 	.word	0xceddcedd
    5b14:	ceddcedd 	.word	0xceddcedd
    5b18:	ceddcedd 	.word	0xceddcedd
    5b1c:	ceddcedd 	.word	0xceddcedd
    5b20:	ceddcedd 	.word	0xceddcedd
    5b24:	ceddcedd 	.word	0xceddcedd
    5b28:	ceddcedd 	.word	0xceddcedd
    5b2c:	ceddcedd 	.word	0xceddcedd
    5b30:	ceddcedd 	.word	0xceddcedd
    5b34:	ceddcedd 	.word	0xceddcedd
    5b38:	ceddcedd 	.word	0xceddcedd
    5b3c:	ceddcedd 	.word	0xceddcedd
    5b40:	ceddcedd 	.word	0xceddcedd
    5b44:	ceddcedd 	.word	0xceddcedd
    5b48:	c6ddc6dd 	.word	0xc6ddc6dd
    5b4c:	ceddcedd 	.word	0xceddcedd
    5b50:	cefdcefd 	.word	0xcefdcefd
    5b54:	d71ed71e 	.word	0xd71ed71e
    5b58:	d6fed6fe 	.word	0xd6fed6fe
    5b5c:	d71ed71e 	.word	0xd71ed71e
    5b60:	d71ed71e 	.word	0xd71ed71e
    5b64:	d71ed71e 	.word	0xd71ed71e
    5b68:	d71ed71e 	.word	0xd71ed71e
    5b6c:	d71ed71e 	.word	0xd71ed71e
    5b70:	d71ed71e 	.word	0xd71ed71e
    5b74:	d6fed6fe 	.word	0xd6fed6fe
    5b78:	d73ed71e 	.word	0xd73ed71e
    5b7c:	ceddbe5b 	.word	0xceddbe5b
    5b80:	d71ed73e 	.word	0xd71ed73e
    5b84:	d71ed71e 	.word	0xd71ed71e
    5b88:	d73ed71e 	.word	0xd73ed71e
    5b8c:	d6fdd6dd 	.word	0xd6fdd6dd
    5b90:	d6fddf3e 	.word	0xd6fddf3e
    5b94:	d71ed71e 	.word	0xd71ed71e
    5b98:	d71ed71e 	.word	0xd71ed71e
    5b9c:	d71ed71e 	.word	0xd71ed71e
    5ba0:	d71ed71e 	.word	0xd71ed71e
    5ba4:	ceddbe7b 	.word	0xceddbe7b
    5ba8:	d6fed71e 	.word	0xd6fed71e
    5bac:	ceddcebd 	.word	0xceddcebd
    5bb0:	d71ed71e 	.word	0xd71ed71e
    5bb4:	cefdd71e 	.word	0xcefdd71e
    5bb8:	d71ed71e 	.word	0xd71ed71e
    5bbc:	d71ed6fd 	.word	0xd71ed6fd
    5bc0:	d71ed71e 	.word	0xd71ed71e
    5bc4:	d71ed71e 	.word	0xd71ed71e
    5bc8:	d71ed71e 	.word	0xd71ed71e
    5bcc:	ceddd6fe 	.word	0xceddd6fe
    5bd0:	cebdcedd 	.word	0xcebdcedd
    5bd4:	ceddcedd 	.word	0xceddcedd
    5bd8:	ceddcedd 	.word	0xceddcedd
    5bdc:	ceddcedd 	.word	0xceddcedd
    5be0:	ceddcedd 	.word	0xceddcedd
    5be4:	ceddcedd 	.word	0xceddcedd
    5be8:	ceddcedd 	.word	0xceddcedd
    5bec:	ceddcedd 	.word	0xceddcedd
    5bf0:	ceddcedd 	.word	0xceddcedd
    5bf4:	ceddcedd 	.word	0xceddcedd
    5bf8:	ceddcedd 	.word	0xceddcedd
    5bfc:	ceddcedd 	.word	0xceddcedd
    5c00:	ceddcedd 	.word	0xceddcedd
    5c04:	c6ddc6dd 	.word	0xc6ddc6dd
    5c08:	ceddcedd 	.word	0xceddcedd
    5c0c:	ceddcebd 	.word	0xceddcebd
    5c10:	9d56d6fd 	.word	0x9d56d6fd
    5c14:	df3edf3e 	.word	0xdf3edf3e
    5c18:	df1edf3e 	.word	0xdf1edf3e
    5c1c:	d6fedf1e 	.word	0xd6fedf1e
    5c20:	defedf1e 	.word	0xdefedf1e
    5c24:	d6fed6fe 	.word	0xd6fed6fe
    5c28:	d6fed6fe 	.word	0xd6fed6fe
    5c2c:	ceded6de 	.word	0xceded6de
    5c30:	cedecede 	.word	0xcedecede
    5c34:	d6decede 	.word	0xd6decede
    5c38:	be3bd6fe 	.word	0xbe3bd6fe
    5c3c:	cedecebd 	.word	0xcedecebd
    5c40:	ceddd6fe 	.word	0xceddd6fe
    5c44:	d6ddd6fd 	.word	0xd6ddd6fd
    5c48:	d6fed6fe 	.word	0xd6fed6fe
    5c4c:	d6fed6fe 	.word	0xd6fed6fe
    5c50:	df1ed6fe 	.word	0xdf1ed6fe
    5c54:	df1edf1e 	.word	0xdf1edf1e
    5c58:	e73edf1e 	.word	0xe73edf1e
    5c5c:	df3edf3e 	.word	0xdf3edf3e
    5c60:	d6dcdefd 	.word	0xd6dcdefd
    5c64:	df1dd6dc 	.word	0xdf1dd6dc
    5c68:	e77fe75e 	.word	0xe77fe75e
    5c6c:	e75ee75e 	.word	0xe75ee75e
    5c70:	ef5eef5e 	.word	0xef5eef5e
    5c74:	ef5eef7e 	.word	0xef5eef7e
    5c78:	f77ff77f 	.word	0xf77ff77f
    5c7c:	e6fdef5e 	.word	0xe6fdef5e
    5c80:	f79ff79f 	.word	0xf79ff79f
    5c84:	f79ff79f 	.word	0xf79ff79f
    5c88:	f79ff79f 	.word	0xf79ff79f
    5c8c:	f7bff7bf 	.word	0xf7bff7bf
    5c90:	f79ff79f 	.word	0xf79ff79f
    5c94:	f7bff7bf 	.word	0xf7bff7bf
    5c98:	f7bff7bf 	.word	0xf7bff7bf
    5c9c:	f7bff7bf 	.word	0xf7bff7bf
    5ca0:	f7bff7bf 	.word	0xf7bff7bf
    5ca4:	f7bff7bf 	.word	0xf7bff7bf
    5ca8:	ffdfffbf 	.word	0xffdfffbf
    5cac:	f7beffbf 	.word	0xf7beffbf
    5cb0:	ffbff7be 	.word	0xffbff7be
    5cb4:	ffdfffbe 	.word	0xffdfffbe
    5cb8:	ffdfffdf 	.word	0xffdfffdf
    5cbc:	ffbeffdf 	.word	0xffbeffdf
    5cc0:	ffdfffbe 	.word	0xffdfffbe
    5cc4:	ffbeffdf 	.word	0xffbeffdf
    5cc8:	f79ef7be 	.word	0xf79ef7be
    5ccc:	f79ef79e 	.word	0xf79ef79e
    5cd0:	f79ef79e 	.word	0xf79ef79e
    5cd4:	f79ef79e 	.word	0xf79ef79e
    5cd8:	f79ef79e 	.word	0xf79ef79e
    5cdc:	f79ef79e 	.word	0xf79ef79e
    5ce0:	f79ef79e 	.word	0xf79ef79e
    5ce4:	f79ef79e 	.word	0xf79ef79e
    5ce8:	f79ef79e 	.word	0xf79ef79e
    5cec:	f79ef79e 	.word	0xf79ef79e
    5cf0:	f79ef79e 	.word	0xf79ef79e
    5cf4:	f79ef79e 	.word	0xf79ef79e
    5cf8:	f79ef79e 	.word	0xf79ef79e
    5cfc:	f79ef79e 	.word	0xf79ef79e
    5d00:	f79ef79e 	.word	0xf79ef79e
    5d04:	f79ef79e 	.word	0xf79ef79e
    5d08:	f79ef79e 	.word	0xf79ef79e
    5d0c:	f79ef79e 	.word	0xf79ef79e
    5d10:	f79ef79e 	.word	0xf79ef79e
    5d14:	f79ef79e 	.word	0xf79ef79e
    5d18:	ff9ef79e 	.word	0xff9ef79e
    5d1c:	f79eff9e 	.word	0xf79eff9e
    5d20:	f79ef79e 	.word	0xf79ef79e
    5d24:	f79ef79e 	.word	0xf79ef79e
    5d28:	f79ef79e 	.word	0xf79ef79e
    5d2c:	f79ef79e 	.word	0xf79ef79e
    5d30:	f79ef79e 	.word	0xf79ef79e
    5d34:	f79ef79e 	.word	0xf79ef79e
    5d38:	f79ef79e 	.word	0xf79ef79e
    5d3c:	f79ef79e 	.word	0xf79ef79e
    5d40:	f79ef79e 	.word	0xf79ef79e
    5d44:	f79ef79e 	.word	0xf79ef79e
    5d48:	f79ef79e 	.word	0xf79ef79e
    5d4c:	f79ef79e 	.word	0xf79ef79e
    5d50:	f79ef79e 	.word	0xf79ef79e
    5d54:	f79ef79e 	.word	0xf79ef79e
    5d58:	ff9ef79e 	.word	0xff9ef79e
    5d5c:	ff9eff9e 	.word	0xff9eff9e
    5d60:	ff9eff9e 	.word	0xff9eff9e
    5d64:	f77df77e 	.word	0xf77df77e
    5d68:	f7bef79d 	.word	0xf7bef79d
    5d6c:	e77ef7df 	.word	0xe77ef7df
    5d70:	c67cc69c 	.word	0xc67cc69c
    5d74:	c6bdc69c 	.word	0xc6bdc69c
    5d78:	c6bdc6bd 	.word	0xc6bdc6bd
    5d7c:	c6bdc6bd 	.word	0xc6bdc6bd
    5d80:	c6bdc6bd 	.word	0xc6bdc6bd
    5d84:	c6bdc6bd 	.word	0xc6bdc6bd
    5d88:	c6ddc6dd 	.word	0xc6ddc6dd
    5d8c:	ceddcedd 	.word	0xceddcedd
    5d90:	ceddcedd 	.word	0xceddcedd
    5d94:	ceddcedd 	.word	0xceddcedd
    5d98:	ceddcedd 	.word	0xceddcedd
    5d9c:	ceddcedd 	.word	0xceddcedd
    5da0:	ceddcedd 	.word	0xceddcedd
    5da4:	ceddcedd 	.word	0xceddcedd
    5da8:	ceddcedd 	.word	0xceddcedd
    5dac:	ceddcedd 	.word	0xceddcedd
    5db0:	ceddcedd 	.word	0xceddcedd
    5db4:	ceddcedd 	.word	0xceddcedd
    5db8:	ceddcedd 	.word	0xceddcedd
    5dbc:	ceddcedd 	.word	0xceddcedd
    5dc0:	ceddcedd 	.word	0xceddcedd
    5dc4:	c6ddcedd 	.word	0xc6ddcedd
    5dc8:	c6bdc6bc 	.word	0xc6bdc6bc
    5dcc:	cefdcedd 	.word	0xcefdcedd
    5dd0:	d71ed71e 	.word	0xd71ed71e
    5dd4:	d71ed71e 	.word	0xd71ed71e
    5dd8:	d71ed71e 	.word	0xd71ed71e
    5ddc:	d71ed71e 	.word	0xd71ed71e
    5de0:	d71ed71e 	.word	0xd71ed71e
    5de4:	d71ed71e 	.word	0xd71ed71e
    5de8:	d71ed71e 	.word	0xd71ed71e
    5dec:	d71ed71e 	.word	0xd71ed71e
    5df0:	d71ed71e 	.word	0xd71ed71e
    5df4:	d73ed71e 	.word	0xd73ed71e
    5df8:	c69cd6fe 	.word	0xc69cd6fe
    5dfc:	d71ecefd 	.word	0xd71ecefd
    5e00:	cefdd71e 	.word	0xcefdd71e
    5e04:	d71ed71e 	.word	0xd71ed71e
    5e08:	d71ed6fe 	.word	0xd71ed6fe
    5e0c:	d71ed71e 	.word	0xd71ed71e
    5e10:	df1ed6fe 	.word	0xdf1ed6fe
    5e14:	d71ed71e 	.word	0xd71ed71e
    5e18:	d71ed71e 	.word	0xd71ed71e
    5e1c:	d71ed71e 	.word	0xd71ed71e
    5e20:	d71ed71e 	.word	0xd71ed71e
    5e24:	cefdcefd 	.word	0xcefdcefd
    5e28:	ceddcedd 	.word	0xceddcedd
    5e2c:	d71ed6fd 	.word	0xd71ed6fd
    5e30:	d6fdd71e 	.word	0xd6fdd71e
    5e34:	d73ed6fe 	.word	0xd73ed6fe
    5e38:	d71ed6fe 	.word	0xd71ed6fe
    5e3c:	d71ed71e 	.word	0xd71ed71e
    5e40:	d71ed71e 	.word	0xd71ed71e
    5e44:	d6fed71e 	.word	0xd6fed71e
    5e48:	d71ed6fe 	.word	0xd71ed6fe
    5e4c:	d71ed71e 	.word	0xd71ed71e
    5e50:	c6bccedd 	.word	0xc6bccedd
    5e54:	ceddcedd 	.word	0xceddcedd
    5e58:	ceddcedd 	.word	0xceddcedd
    5e5c:	ceddcedd 	.word	0xceddcedd
    5e60:	ceddcedd 	.word	0xceddcedd
    5e64:	ceddcedd 	.word	0xceddcedd
    5e68:	ceddcedd 	.word	0xceddcedd
    5e6c:	ceddcedd 	.word	0xceddcedd
    5e70:	ceddcedd 	.word	0xceddcedd
    5e74:	ceddcedd 	.word	0xceddcedd
    5e78:	ceddcedd 	.word	0xceddcedd
    5e7c:	ceddcedd 	.word	0xceddcedd
    5e80:	ceddcedd 	.word	0xceddcedd
    5e84:	c6ddc6dd 	.word	0xc6ddc6dd
    5e88:	ceddcedd 	.word	0xceddcedd
    5e8c:	ceddcebd 	.word	0xceddcebd
    5e90:	9d56d6fd 	.word	0x9d56d6fd
    5e94:	ef7ed69b 	.word	0xef7ed69b
    5e98:	df1edf1d 	.word	0xdf1edf1d
    5e9c:	df1edf1e 	.word	0xdf1edf1e
    5ea0:	d71edf1e 	.word	0xd71edf1e
    5ea4:	d6fed6fe 	.word	0xd6fed6fe
    5ea8:	d6fed71e 	.word	0xd6fed71e
    5eac:	ceddd6fe 	.word	0xceddd6fe
    5eb0:	d6decedd 	.word	0xd6decedd
    5eb4:	cebdd6fe 	.word	0xcebdd6fe
    5eb8:	ceddbe3b 	.word	0xceddbe3b
    5ebc:	d6fecedd 	.word	0xd6fecedd
    5ec0:	ceddd6dd 	.word	0xceddd6dd
    5ec4:	d6ded6dd 	.word	0xd6ded6dd
    5ec8:	d6ded6de 	.word	0xd6ded6de
    5ecc:	d6fed6fe 	.word	0xd6fed6fe
    5ed0:	d6fed6fe 	.word	0xd6fed6fe
    5ed4:	df1edf1e 	.word	0xdf1edf1e
    5ed8:	df1ed6fe 	.word	0xdf1ed6fe
    5edc:	d6bce73f 	.word	0xd6bce73f
    5ee0:	e75fce9c 	.word	0xe75fce9c
    5ee4:	d6dcdf1e 	.word	0xd6dcdf1e
    5ee8:	e75edefd 	.word	0xe75edefd
    5eec:	e75eef5f 	.word	0xe75eef5f
    5ef0:	ef5ee75e 	.word	0xef5ee75e
    5ef4:	ef7fef5e 	.word	0xef7fef5e
    5ef8:	f79fe75e 	.word	0xf79fe75e
    5efc:	ef7fdefd 	.word	0xef7fdefd
    5f00:	f77fef7f 	.word	0xf77fef7f
    5f04:	f77ff77f 	.word	0xf77ff77f
    5f08:	f79ff79f 	.word	0xf79ff79f
    5f0c:	f79ff79f 	.word	0xf79ff79f
    5f10:	f79ff79f 	.word	0xf79ff79f
    5f14:	f7bff79f 	.word	0xf7bff79f
    5f18:	f7bff7bf 	.word	0xf7bff7bf
    5f1c:	f7bff7bf 	.word	0xf7bff7bf
    5f20:	f7bff7bf 	.word	0xf7bff7bf
    5f24:	f7bff7bf 	.word	0xf7bff7bf
    5f28:	f7bff7bf 	.word	0xf7bff7bf
    5f2c:	ffbfffbf 	.word	0xffbfffbf
    5f30:	ffbfffbf 	.word	0xffbfffbf
    5f34:	ffbfffdf 	.word	0xffbfffdf
    5f38:	ffbfffbf 	.word	0xffbfffbf
    5f3c:	ffbfffbf 	.word	0xffbfffbf
    5f40:	ffbfffbf 	.word	0xffbfffbf
    5f44:	ffbfffbf 	.word	0xffbfffbf
    5f48:	ffbeffdf 	.word	0xffbeffdf
    5f4c:	f79ef7be 	.word	0xf79ef7be
    5f50:	f79ef79e 	.word	0xf79ef79e
    5f54:	f79ef79e 	.word	0xf79ef79e
    5f58:	f79ef79e 	.word	0xf79ef79e
    5f5c:	f7bef7be 	.word	0xf7bef7be
    5f60:	f79ef7be 	.word	0xf79ef7be
    5f64:	f79ef79e 	.word	0xf79ef79e
    5f68:	f79ef79e 	.word	0xf79ef79e
    5f6c:	f79ef79e 	.word	0xf79ef79e
    5f70:	f79ef79e 	.word	0xf79ef79e
    5f74:	f79ef79e 	.word	0xf79ef79e
    5f78:	f79ef79e 	.word	0xf79ef79e
    5f7c:	f79ef79e 	.word	0xf79ef79e
    5f80:	f79ef79e 	.word	0xf79ef79e
    5f84:	f79ef79e 	.word	0xf79ef79e
    5f88:	f79ef79e 	.word	0xf79ef79e
    5f8c:	f79ef79e 	.word	0xf79ef79e
    5f90:	f79ef79e 	.word	0xf79ef79e
    5f94:	f79ef79e 	.word	0xf79ef79e
    5f98:	ff9eff9e 	.word	0xff9eff9e
    5f9c:	ff9eff9e 	.word	0xff9eff9e
    5fa0:	f7bef7be 	.word	0xf7bef7be
    5fa4:	f7bff79e 	.word	0xf7bff79e
    5fa8:	f79ff79f 	.word	0xf79ff79f
    5fac:	ff9fff9e 	.word	0xff9fff9e
    5fb0:	f79ef79e 	.word	0xf79ef79e
    5fb4:	f79ef79e 	.word	0xf79ef79e
    5fb8:	f79ef79e 	.word	0xf79ef79e
    5fbc:	f79ef79e 	.word	0xf79ef79e
    5fc0:	f79ef79e 	.word	0xf79ef79e
    5fc4:	f79ef79e 	.word	0xf79ef79e
    5fc8:	f79ef79e 	.word	0xf79ef79e
    5fcc:	f7bef7be 	.word	0xf7bef7be
    5fd0:	f79ef7be 	.word	0xf79ef7be
    5fd4:	ff7ef77e 	.word	0xff7ef77e
    5fd8:	ff9eff7e 	.word	0xff9eff7e
    5fdc:	ff9eff9e 	.word	0xff9eff9e
    5fe0:	ff9eff9e 	.word	0xff9eff9e
    5fe4:	f79ef77e 	.word	0xf79ef77e
    5fe8:	f79ef79e 	.word	0xf79ef79e
    5fec:	e77ef7df 	.word	0xe77ef7df
    5ff0:	c67bcebb 	.word	0xc67bcebb
    5ff4:	c69cc69c 	.word	0xc69cc69c
    5ff8:	c6bdc6bc 	.word	0xc6bdc6bc
    5ffc:	c6bdc6bd 	.word	0xc6bdc6bd
    6000:	c6bdc6bd 	.word	0xc6bdc6bd
    6004:	c6bdc6bd 	.word	0xc6bdc6bd
    6008:	c6ddc6bd 	.word	0xc6ddc6bd
    600c:	ceddcedd 	.word	0xceddcedd
    6010:	cebdcedd 	.word	0xcebdcedd
    6014:	ceddcedd 	.word	0xceddcedd
    6018:	ceddcedd 	.word	0xceddcedd
    601c:	ceddcedd 	.word	0xceddcedd
    6020:	c6ddc6dd 	.word	0xc6ddc6dd
    6024:	c6ddc6dd 	.word	0xc6ddc6dd
    6028:	ceddcedd 	.word	0xceddcedd
    602c:	ceddcedd 	.word	0xceddcedd
    6030:	ceddcedd 	.word	0xceddcedd
    6034:	ceddcedd 	.word	0xceddcedd
    6038:	ceddcedd 	.word	0xceddcedd
    603c:	ceddcedd 	.word	0xceddcedd
    6040:	cebdcedd 	.word	0xcebdcedd
    6044:	c6bdc6bc 	.word	0xc6bdc6bc
    6048:	cefdcedd 	.word	0xcefdcedd
    604c:	d71ed71e 	.word	0xd71ed71e
    6050:	d6fed71e 	.word	0xd6fed71e
    6054:	d71ed71e 	.word	0xd71ed71e
    6058:	d71ed71e 	.word	0xd71ed71e
    605c:	d71ed71e 	.word	0xd71ed71e
    6060:	d71ed71e 	.word	0xd71ed71e
    6064:	d71ed71e 	.word	0xd71ed71e
    6068:	d71ed6fd 	.word	0xd71ed6fd
    606c:	d73ed71e 	.word	0xd73ed71e
    6070:	d71ecefd 	.word	0xd71ecefd
    6074:	d71ed71e 	.word	0xd71ed71e
    6078:	ceddc67c 	.word	0xceddc67c
    607c:	d6fddf3e 	.word	0xd6fddf3e
    6080:	d71ed71e 	.word	0xd71ed71e
    6084:	d71ed6fe 	.word	0xd71ed6fe
    6088:	d71ed71e 	.word	0xd71ed71e
    608c:	d71ed71e 	.word	0xd71ed71e
